CCS PCH C Compiler, Version 4.078, 38112               25-out-14 18:53

               Filename: Central.lst

               ROM used: 30616 bytes (93%)
                         Largest free fragment is 2152
               RAM used: 60 (4%) at main() level
                         85 (6%) worst case
               Stack:    7 locations

*
0000:  GOTO   5192
.................... #include <Central.h> 
.................... #include <18F452.h> 
.................... //////// Standard Header file for the PIC18F452 device //////////////// 
.................... #device PIC18F452 
.................... #list 
....................  
.................... #device adc=16 
....................  
.................... #FUSES NOWDT                 	//No Watch Dog Timer 
.................... #FUSES WDT128                	//Watch Dog Timer uses 1:128 Postscale 
.................... #FUSES HS                    	//High speed Osc (> 4mhz for PCM/PCH) (>10mhz for PCD) 
.................... #FUSES NOPROTECT             	//Code not protected from reading 
.................... #FUSES NOOSCSEN              	//Oscillator switching is disabled, main oscillator is source 
.................... #FUSES BROWNOUT              	//Reset when brownout detected 
.................... #FUSES BORV42                	//Brownout reset at 4.2V 
.................... #FUSES PUT                   	//Power Up Timer 
.................... #FUSES STVREN                	//Stack full/underflow will cause reset 
.................... #FUSES NODEBUG               	//No Debug mode for ICD 
.................... #FUSES NOLVP                 	//No low voltage prgming, B3(PIC16) or B5(PIC18) used for I/O 
.................... #FUSES NOWRT                 	//Program memory not write protected 
.................... #FUSES NOWRTD                	//Data EEPROM not write protected 
.................... #FUSES NOWRTB                	//Boot block not write protected 
.................... #FUSES NOWRTC                	//configuration not registers write protected 
.................... #FUSES NOCPD                 	//No EE protection 
.................... #FUSES NOCPB                 	//No Boot Block code protection 
.................... #FUSES NOEBTR                	//Memory not protected from table reads 
.................... #FUSES NOEBTRB               	//Boot block not protected from table reads 
....................  
.................... #use delay(clock=20000000) 
*
0A08:  CLRF   FEA
0A0A:  MOVLW  49
0A0C:  MOVWF  FE9
0A0E:  MOVF   FEF,W
0A10:  BZ    0A2C
0A12:  MOVLW  06
0A14:  MOVWF  01
0A16:  CLRF   00
0A18:  DECFSZ 00,F
0A1A:  BRA    0A18
0A1C:  DECFSZ 01,F
0A1E:  BRA    0A16
0A20:  MOVLW  7B
0A22:  MOVWF  00
0A24:  DECFSZ 00,F
0A26:  BRA    0A24
0A28:  DECFSZ FEF,F
0A2A:  BRA    0A12
0A2C:  RETLW  00
.................... #use rs232(baud=9600,parity=N,xmit=PIN_C6,rcv=PIN_C7,bits=8) 
....................  
....................  
....................  
....................  
.................... #define LCD_DATA4 PIN_D0 
.................... #define LCD_DATA5 PIN_D1 
.................... #define LCD_DATA6 PIN_D2 
.................... #define LCD_DATA7 PIN_D3 
.................... #define LCD_ENABLE_PIN PIN_A1 
.................... #define LCD_RS_PIN PIN_C4 
.................... #define LCD_RW_PIN PIN_C5 
.................... #define LCD_TYPE 2 
.................... #include <lcd.c> 
.................... /////////////////////////////////////////////////////////////////////////////// 
.................... ////                             LCD.C                                     //// 
.................... ////                 Driver for common LCD modules                         //// 
.................... ////                                                                       //// 
.................... ////  lcd_init()   Must be called before any other function.               //// 
.................... ////                                                                       //// 
.................... ////  lcd_putc(c)  Will display c on the next position of the LCD.         //// 
.................... ////                     The following have special meaning:               //// 
.................... ////                      \f  Clear display                                //// 
.................... ////                      \n  Go to start of second line                   //// 
.................... ////                      \b  Move back one position                       //// 
.................... ////                                                                       //// 
.................... ////  lcd_gotoxy(x,y) Set write position on LCD (upper left is 1,1)        //// 
.................... ////                                                                       //// 
.................... ////  lcd_getc(x,y)   Returns character at position x,y on LCD             //// 
.................... ////                                                                       //// 
.................... ////  CONFIGURATION                                                        //// 
.................... ////  The LCD can be configured in one of two ways: a.) port access or     //// 
.................... ////  b.) pin access.  Port access requires the entire 7 bit interface     //// 
.................... ////  connected to one GPIO port, and the data bits (D4:D7 of the LCD)     //// 
.................... ////  connected to sequential pins on the GPIO.  Pin access                //// 
.................... ////  has no requirements, all 7 bits of the control interface can         //// 
.................... ////  can be connected to any GPIO using several ports.                    //// 
.................... ////                                                                       //// 
.................... ////  To use port access, #define LCD_DATA_PORT to the SFR location of     //// 
.................... ////  of the GPIO port that holds the interface, -AND- edit LCD_PIN_MAP    //// 
.................... ////  of this file to configure the pin order.  If you are using a         //// 
.................... ////  baseline PIC (PCB), then LCD_OUTPUT_MAP and LCD_INPUT_MAP also must  //// 
.................... ////  be defined.                                                          //// 
.................... ////                                                                       //// 
.................... ////  Example of port access:                                              //// 
.................... ////     #define LCD_DATA_PORT getenv("SFR:PORTD")                         //// 
.................... ////                                                                       //// 
.................... ////  To use pin access, the following pins must be defined:               //// 
.................... ////     LCD_ENABLE_PIN                                                    //// 
.................... ////     LCD_RS_PIN                                                        //// 
.................... ////     LCD_RW_PIN                                                        //// 
.................... ////     LCD_DATA4                                                         //// 
.................... ////     LCD_DATA5                                                         //// 
.................... ////     LCD_DATA6                                                         //// 
.................... ////     LCD_DATA7                                                         //// 
.................... ////                                                                       //// 
.................... ////  Example of pin access:                                               //// 
.................... ////     #define LCD_ENABLE_PIN  PIN_E0                                    //// 
.................... ////     #define LCD_RS_PIN      PIN_E1                                    //// 
.................... ////     #define LCD_RW_PIN      PIN_E2                                    //// 
.................... ////     #define LCD_DATA4       PIN_D4                                    //// 
.................... ////     #define LCD_DATA5       PIN_D5                                    //// 
.................... ////     #define LCD_DATA6       PIN_D6                                    //// 
.................... ////     #define LCD_DATA7       PIN_D7                                    //// 
.................... ////                                                                       //// 
.................... /////////////////////////////////////////////////////////////////////////////// 
.................... ////        (C) Copyright 1996,2010 Custom Computer Services           //// 
.................... //// This source code may only be used by licensed users of the CCS C  //// 
.................... //// compiler.  This source code may only be distributed to other      //// 
.................... //// licensed users of the CCS C compiler.  No other use, reproduction //// 
.................... //// or distribution is permitted without written permission.          //// 
.................... //// Derivative programs created using this software in object code    //// 
.................... //// form are not restricted in any way.                               //// 
.................... /////////////////////////////////////////////////////////////////////////// 
....................  
.................... // define the pinout. 
.................... // only required if port access is being used. 
.................... typedef struct   
.................... {                            // This structure is overlayed 
....................    BOOLEAN enable;           // on to an I/O port to gain 
....................    BOOLEAN rs;               // access to the LCD pins. 
....................    BOOLEAN rw;               // The bits are allocated from 
....................    BOOLEAN unused;           // low order up.  ENABLE will 
....................    int     data : 4;         // be LSB pin of that port. 
....................   #if defined(__PCD__)       // The port used will be LCD_DATA_PORT. 
....................    int    reserved: 8; 
....................   #endif 
.................... } LCD_PIN_MAP; 
....................  
.................... // this is to improve compatability with previous LCD drivers that accepted 
.................... // a define labeled 'use_portb_lcd' that configured the LCD onto port B. 
.................... #if ((defined(use_portb_lcd)) && (use_portb_lcd==TRUE)) 
....................  #define LCD_DATA_PORT getenv("SFR:PORTB") 
.................... #endif 
....................  
.................... #if defined(__PCB__) 
....................    // these definitions only need to be modified for baseline PICs. 
....................    // all other PICs use LCD_PIN_MAP or individual LCD_xxx pin definitions. 
.................... /*                                    EN, RS,   RW,   UNUSED,  DATA  */ 
....................  const LCD_PIN_MAP LCD_OUTPUT_MAP =  {0,  0,    0,    0,       0}; 
....................  const LCD_PIN_MAP LCD_INPUT_MAP =   {0,  0,    0,    0,       0xF}; 
.................... #endif 
....................  
.................... ////////////////////// END CONFIGURATION /////////////////////////////////// 
....................  
.................... #ifndef LCD_ENABLE_PIN 
....................    #define lcd_output_enable(x) lcdlat.enable=x 
....................    #define lcd_enable_tris()   lcdtris.enable=0 
.................... #else 
....................    #define lcd_output_enable(x) output_bit(LCD_ENABLE_PIN, x) 
....................    #define lcd_enable_tris()  output_drive(LCD_ENABLE_PIN) 
.................... #endif 
....................  
.................... #ifndef LCD_RS_PIN 
....................    #define lcd_output_rs(x) lcdlat.rs=x 
....................    #define lcd_rs_tris()   lcdtris.rs=0 
.................... #else 
....................    #define lcd_output_rs(x) output_bit(LCD_RS_PIN, x) 
....................    #define lcd_rs_tris()  output_drive(LCD_RS_PIN) 
.................... #endif 
....................  
.................... #ifndef LCD_RW_PIN 
....................    #define lcd_output_rw(x) lcdlat.rw=x 
....................    #define lcd_rw_tris()   lcdtris.rw=0 
.................... #else 
....................    #define lcd_output_rw(x) output_bit(LCD_RW_PIN, x) 
....................    #define lcd_rw_tris()  output_drive(LCD_RW_PIN) 
.................... #endif 
....................  
.................... // original version of this library incorrectly labeled LCD_DATA0 as LCD_DATA4, 
.................... // LCD_DATA1 as LCD_DATA5, and so on.  this block of code makes the driver 
.................... // compatible with any code written for the original library 
.................... #if (defined(LCD_DATA0) && defined(LCD_DATA1) && defined(LCD_DATA2) && defined(LCD_DATA3) && !defined(LCD_DATA4) && !defined(LCD_DATA5) && !defined(LCD_DATA6) && !defined(LCD_DATA7)) 
....................    #define  LCD_DATA4    LCD_DATA0 
....................    #define  LCD_DATA5    LCD_DATA1 
....................    #define  LCD_DATA6    LCD_DATA2 
....................    #define  LCD_DATA7    LCD_DATA3 
.................... #endif 
....................  
.................... #ifndef LCD_DATA4 
.................... #ifndef LCD_DATA_PORT 
....................    #if defined(__PCB__) 
....................       #define LCD_DATA_PORT      0x06     //portb 
....................       #define set_tris_lcd(x)   set_tris_b(x) 
....................    #else 
....................      #if defined(PIN_D0) 
....................       #define LCD_DATA_PORT      getenv("SFR:PORTD")     //portd 
....................      #else 
....................       #define LCD_DATA_PORT      getenv("SFR:PORTB")     //portb 
....................      #endif 
....................    #endif    
.................... #endif 
....................  
.................... #if defined(__PCB__) 
....................    LCD_PIN_MAP lcd, lcdlat; 
....................    #byte lcd = LCD_DATA_PORT 
....................    #byte lcdlat = LCD_DATA_PORT 
.................... #elif defined(__PCM__) 
....................    LCD_PIN_MAP lcd, lcdlat, lcdtris; 
....................    #byte lcd = LCD_DATA_PORT 
....................    #byte lcdlat = LCD_DATA_PORT 
....................    #byte lcdtris = LCD_DATA_PORT+0x80 
.................... #elif defined(__PCH__) 
....................    LCD_PIN_MAP lcd, lcdlat, lcdtris; 
....................    #byte lcd = LCD_DATA_PORT 
....................    #byte lcdlat = LCD_DATA_PORT+9 
....................    #byte lcdtris = LCD_DATA_PORT+0x12 
.................... #elif defined(__PCD__) 
....................    LCD_PIN_MAP lcd, lcdlat, lcdtris; 
....................    #word lcd = LCD_DATA_PORT 
....................    #word lcdlat = LCD_DATA_PORT+2 
....................    #word lcdtris = LCD_DATA_PORT-0x02 
.................... #endif 
.................... #endif   //LCD_DATA4 not defined 
....................  
.................... #ifndef LCD_TYPE 
....................    #define LCD_TYPE 2           // 0=5x7, 1=5x10, 2=2 lines 
.................... #endif 
....................  
.................... #ifndef LCD_LINE_TWO 
....................    #define LCD_LINE_TWO 0x40    // LCD RAM address for the second line 
.................... #endif 
....................  
.................... BYTE const LCD_INIT_STRING[4] = {0x20 | (LCD_TYPE << 2), 0xc, 1, 6}; 
....................                              // These bytes need to be sent to the LCD 
....................                              // to start it up. 
....................  
.................... BYTE lcd_read_nibble(void); 
....................  
.................... BYTE lcd_read_byte(void) 
.................... { 
....................    BYTE low,high; 
....................  
....................  #if defined(__PCB__) 
....................    set_tris_lcd(LCD_INPUT_MAP); 
....................  #else 
....................   #if (defined(LCD_DATA4) && defined(LCD_DATA5) && defined(LCD_DATA6) && defined(LCD_DATA7)) 
....................    output_float(LCD_DATA4); 
*
0AC4:  BSF    F95.0
....................    output_float(LCD_DATA5); 
0AC6:  BSF    F95.1
....................    output_float(LCD_DATA6); 
0AC8:  BSF    F95.2
....................    output_float(LCD_DATA7); 
0ACA:  BSF    F95.3
....................   #else 
....................    lcdtris.data = 0xF; 
....................   #endif 
....................  #endif 
....................          
....................    lcd_output_rw(1); 
0ACC:  BSF    F8B.5
0ACE:  BCF    F94.5
....................    delay_cycles(1); 
0AD0:  NOP   
....................    lcd_output_enable(1); 
0AD2:  BSF    F89.1
0AD4:  BCF    F92.1
....................    delay_cycles(1); 
0AD6:  NOP   
....................    high = lcd_read_nibble(); 
0AD8:  RCALL  0A72
0ADA:  MOVFF  01,50
....................        
....................    lcd_output_enable(0); 
0ADE:  BCF    F89.1
0AE0:  BCF    F92.1
....................    delay_cycles(1); 
0AE2:  NOP   
....................    lcd_output_enable(1); 
0AE4:  BSF    F89.1
0AE6:  BCF    F92.1
....................    delay_us(1); 
0AE8:  BRA    0AEA
0AEA:  BRA    0AEC
0AEC:  NOP   
....................    low = lcd_read_nibble(); 
0AEE:  RCALL  0A72
0AF0:  MOVFF  01,4F
....................        
....................    lcd_output_enable(0); 
0AF4:  BCF    F89.1
0AF6:  BCF    F92.1
....................  
....................  #if defined(__PCB__) 
....................    set_tris_lcd(LCD_INPUT_MAP); 
....................  #else 
....................   #if (defined(LCD_DATA4) && defined(LCD_DATA5) && defined(LCD_DATA6) && defined(LCD_DATA7)) 
....................    output_drive(LCD_DATA4); 
0AF8:  BCF    F95.0
....................    output_drive(LCD_DATA5); 
0AFA:  BCF    F95.1
....................    output_drive(LCD_DATA6); 
0AFC:  BCF    F95.2
....................    output_drive(LCD_DATA7); 
0AFE:  BCF    F95.3
....................   #else 
....................    lcdtris.data = 0x0; 
....................   #endif 
....................  #endif 
....................  
....................    return( (high<<4) | low); 
0B00:  SWAPF  50,W
0B02:  MOVWF  00
0B04:  MOVLW  F0
0B06:  ANDWF  00,F
0B08:  MOVF   00,W
0B0A:  IORWF  4F,W
0B0C:  MOVWF  01
.................... } 
0B0E:  GOTO   0B1E (RETURN)
....................  
.................... BYTE lcd_read_nibble(void) 
.................... { 
....................   #if (defined(LCD_DATA4) && defined(LCD_DATA5) && defined(LCD_DATA6) && defined(LCD_DATA7)) 
....................    BYTE n = 0x00; 
*
0A72:  CLRF   51
....................  
....................    /* Read the data port */ 
....................    n |= input(LCD_DATA4); 
0A74:  BSF    F95.0
0A76:  MOVLW  00
0A78:  BTFSC  F83.0
0A7A:  MOVLW  01
0A7C:  IORWF  51,F
....................    n |= input(LCD_DATA5) << 1; 
0A7E:  BSF    F95.1
0A80:  MOVLW  00
0A82:  BTFSC  F83.1
0A84:  MOVLW  01
0A86:  MOVWF  00
0A88:  BCF    FD8.0
0A8A:  RLCF   00,F
0A8C:  MOVF   00,W
0A8E:  IORWF  51,F
....................    n |= input(LCD_DATA6) << 2; 
0A90:  BSF    F95.2
0A92:  MOVLW  00
0A94:  BTFSC  F83.2
0A96:  MOVLW  01
0A98:  MOVWF  00
0A9A:  RLCF   00,F
0A9C:  RLCF   00,F
0A9E:  MOVLW  FC
0AA0:  ANDWF  00,F
0AA2:  MOVF   00,W
0AA4:  IORWF  51,F
....................    n |= input(LCD_DATA7) << 3; 
0AA6:  BSF    F95.3
0AA8:  MOVLW  00
0AAA:  BTFSC  F83.3
0AAC:  MOVLW  01
0AAE:  MOVWF  00
0AB0:  RLCF   00,F
0AB2:  RLCF   00,F
0AB4:  RLCF   00,F
0AB6:  MOVLW  F8
0AB8:  ANDWF  00,F
0ABA:  MOVF   00,W
0ABC:  IORWF  51,F
....................     
....................    return(n); 
0ABE:  MOVFF  51,01
....................   #else 
....................    return(lcd.data); 
....................   #endif 
.................... } 
0AC2:  RETLW  00
....................  
.................... void lcd_send_nibble(BYTE n) 
.................... { 
....................   #if (defined(LCD_DATA4) && defined(LCD_DATA5) && defined(LCD_DATA6) && defined(LCD_DATA7)) 
....................    /* Write to the data port */ 
....................    output_bit(LCD_DATA4, bit_test(n, 0)); 
*
0A2E:  BTFSC  50.0
0A30:  BRA    0A36
0A32:  BCF    F8C.0
0A34:  BRA    0A38
0A36:  BSF    F8C.0
0A38:  BCF    F95.0
....................    output_bit(LCD_DATA5, bit_test(n, 1)); 
0A3A:  BTFSC  50.1
0A3C:  BRA    0A42
0A3E:  BCF    F8C.1
0A40:  BRA    0A44
0A42:  BSF    F8C.1
0A44:  BCF    F95.1
....................    output_bit(LCD_DATA6, bit_test(n, 2)); 
0A46:  BTFSC  50.2
0A48:  BRA    0A4E
0A4A:  BCF    F8C.2
0A4C:  BRA    0A50
0A4E:  BSF    F8C.2
0A50:  BCF    F95.2
....................    output_bit(LCD_DATA7, bit_test(n, 3)); 
0A52:  BTFSC  50.3
0A54:  BRA    0A5A
0A56:  BCF    F8C.3
0A58:  BRA    0A5C
0A5A:  BSF    F8C.3
0A5C:  BCF    F95.3
....................   #else       
....................    lcdlat.data = n; 
....................   #endif 
....................        
....................    delay_cycles(1); 
0A5E:  NOP   
....................    lcd_output_enable(1); 
0A60:  BSF    F89.1
0A62:  BCF    F92.1
....................    delay_us(2); 
0A64:  MOVLW  03
0A66:  MOVWF  00
0A68:  DECFSZ 00,F
0A6A:  BRA    0A68
....................    lcd_output_enable(0); 
0A6C:  BCF    F89.1
0A6E:  BCF    F92.1
.................... } 
0A70:  RETLW  00
....................  
.................... void lcd_send_byte(BYTE address, BYTE n) 
.................... { 
....................    lcd_enable_tris(); 
*
0B12:  BCF    F92.1
....................    lcd_rs_tris(); 
0B14:  BCF    F94.4
....................    lcd_rw_tris(); 
0B16:  BCF    F94.5
....................  
....................    lcd_output_rs(0); 
0B18:  BCF    F8B.4
0B1A:  BCF    F94.4
....................    while ( bit_test(lcd_read_byte(),7) ) ; 
0B1C:  BRA    0AC4
0B1E:  MOVFF  01,4F
0B22:  BTFSC  01.7
0B24:  BRA    0B1C
....................    lcd_output_rs(address); 
0B26:  MOVF   4D,F
0B28:  BNZ   0B2E
0B2A:  BCF    F8B.4
0B2C:  BRA    0B30
0B2E:  BSF    F8B.4
0B30:  BCF    F94.4
....................    delay_cycles(1); 
0B32:  NOP   
....................    lcd_output_rw(0); 
0B34:  BCF    F8B.5
0B36:  BCF    F94.5
....................    delay_cycles(1); 
0B38:  NOP   
....................    lcd_output_enable(0); 
0B3A:  BCF    F89.1
0B3C:  BCF    F92.1
....................    lcd_send_nibble(n >> 4); 
0B3E:  SWAPF  4E,W
0B40:  MOVWF  4F
0B42:  MOVLW  0F
0B44:  ANDWF  4F,F
0B46:  MOVFF  4F,50
0B4A:  RCALL  0A2E
....................    lcd_send_nibble(n & 0xf); 
0B4C:  MOVF   4E,W
0B4E:  ANDLW  0F
0B50:  MOVWF  4F
0B52:  MOVWF  50
0B54:  RCALL  0A2E
.................... } 
0B56:  RETLW  00
....................  
.................... void lcd_init(void)  
.................... { 
....................    BYTE i; 
....................  
....................  #if defined(__PCB__) 
....................    set_tris_lcd(LCD_OUTPUT_MAP); 
....................  #else 
....................   #if (defined(LCD_DATA4) && defined(LCD_DATA5) && defined(LCD_DATA6) && defined(LCD_DATA7)) 
....................    output_drive(LCD_DATA4); 
0B58:  BCF    F95.0
....................    output_drive(LCD_DATA5); 
0B5A:  BCF    F95.1
....................    output_drive(LCD_DATA6); 
0B5C:  BCF    F95.2
....................    output_drive(LCD_DATA7); 
0B5E:  BCF    F95.3
....................   #else 
....................    lcdtris.data = 0x0; 
....................   #endif 
....................    lcd_enable_tris(); 
0B60:  BCF    F92.1
....................    lcd_rs_tris(); 
0B62:  BCF    F94.4
....................    lcd_rw_tris(); 
0B64:  BCF    F94.5
....................  #endif 
....................  
....................    lcd_output_rs(0); 
0B66:  BCF    F8B.4
0B68:  BCF    F94.4
....................    lcd_output_rw(0); 
0B6A:  BCF    F8B.5
0B6C:  BCF    F94.5
....................    lcd_output_enable(0); 
0B6E:  BCF    F89.1
0B70:  BCF    F92.1
....................      
....................    delay_ms(15); 
0B72:  MOVLW  0F
0B74:  MOVWF  49
0B76:  RCALL  0A08
....................    for(i=1;i<=3;++i) 
0B78:  MOVLW  01
0B7A:  MOVWF  3A
0B7C:  MOVF   3A,W
0B7E:  SUBLW  03
0B80:  BNC   0B92
....................    { 
....................        lcd_send_nibble(3); 
0B82:  MOVLW  03
0B84:  MOVWF  50
0B86:  RCALL  0A2E
....................        delay_ms(5); 
0B88:  MOVLW  05
0B8A:  MOVWF  49
0B8C:  RCALL  0A08
....................    } 
0B8E:  INCF   3A,F
0B90:  BRA    0B7C
....................      
....................    lcd_send_nibble(2); 
0B92:  MOVLW  02
0B94:  MOVWF  50
0B96:  RCALL  0A2E
....................    for(i=0;i<=3;++i) 
0B98:  CLRF   3A
0B9A:  MOVF   3A,W
0B9C:  SUBLW  03
0B9E:  BNC   0BBE
....................       lcd_send_byte(0,LCD_INIT_STRING[i]); 
0BA0:  CLRF   03
0BA2:  MOVF   3A,W
0BA4:  MOVFF  FF2,3B
0BA8:  BCF    FF2.7
0BAA:  CALL   0004
0BAE:  BTFSC  3B.7
0BB0:  BSF    FF2.7
0BB2:  MOVWF  3C
0BB4:  CLRF   4D
0BB6:  MOVWF  4E
0BB8:  RCALL  0B12
0BBA:  INCF   3A,F
0BBC:  BRA    0B9A
.................... } 
0BBE:  GOTO   5254 (RETURN)
....................  
.................... void lcd_gotoxy(BYTE x, BYTE y) 
.................... { 
....................    BYTE address; 
....................     
....................    if(y!=1) 
0BC2:  DECFSZ 4A,W
0BC4:  BRA    0BC8
0BC6:  BRA    0BCE
....................       address=LCD_LINE_TWO; 
0BC8:  MOVLW  40
0BCA:  MOVWF  4B
....................    else 
0BCC:  BRA    0BD0
....................       address=0; 
0BCE:  CLRF   4B
....................       
....................    address+=x-1; 
0BD0:  MOVLW  01
0BD2:  SUBWF  49,W
0BD4:  ADDWF  4B,F
....................    lcd_send_byte(0,0x80|address); 
0BD6:  MOVF   4B,W
0BD8:  IORLW  80
0BDA:  MOVWF  4C
0BDC:  CLRF   4D
0BDE:  MOVWF  4E
0BE0:  RCALL  0B12
.................... } 
0BE2:  GOTO   0C26 (RETURN)
....................  
.................... void lcd_putc(char c) 
.................... { 
....................    switch (c) 
....................    { 
0BE6:  MOVF   48,W
0BE8:  XORLW  0C
0BEA:  BZ    0BF6
0BEC:  XORLW  06
0BEE:  BZ    0C06
0BF0:  XORLW  02
0BF2:  BZ    0C10
0BF4:  BRA    0C1A
....................       case '\f'   :  lcd_send_byte(0,1); 
0BF6:  CLRF   4D
0BF8:  MOVLW  01
0BFA:  MOVWF  4E
0BFC:  RCALL  0B12
....................                      delay_ms(2); 
0BFE:  MOVLW  02
0C00:  MOVWF  49
0C02:  RCALL  0A08
....................                      break; 
0C04:  BRA    0C26
....................                       
....................       case '\n'   : lcd_gotoxy(1,2);        break; 
0C06:  MOVLW  01
0C08:  MOVWF  49
0C0A:  MOVLW  02
0C0C:  MOVWF  4A
0C0E:  BRA    0BC2
....................       
....................       case '\b'   : lcd_send_byte(0,0x10);  break; 
0C10:  CLRF   4D
0C12:  MOVLW  10
0C14:  MOVWF  4E
0C16:  RCALL  0B12
0C18:  BRA    0C26
....................       
....................       default     : lcd_send_byte(1,c);     break; 
0C1A:  MOVLW  01
0C1C:  MOVWF  4D
0C1E:  MOVFF  48,4E
0C22:  RCALL  0B12
0C24:  BRA    0C26
....................    } 
.................... } 
0C26:  RETLW  00
....................   
.................... char lcd_getc(BYTE x, BYTE y) 
.................... { 
....................    char value; 
....................  
....................    lcd_gotoxy(x,y); 
....................    while ( bit_test(lcd_read_byte(),7) ); // wait until busy flag is low 
....................    lcd_output_rs(1); 
....................    value = lcd_read_byte(); 
....................    lcd_output_rs(0); 
....................     
....................    return(value); 
.................... } 
....................  
.................... #define c0 pin_c0 
.................... #define c1 pin_c1 
.................... #define c2 pin_c2 
.................... #define c3 pin_c3 
.................... #define ms delay_ms 
.................... #define varredura delay_ms(500) 
....................  
.................... int x; 
.................... int j=0; 
.................... int16 teclado =0; 
.................... int16 digito =0; 
.................... int w =0; 
.................... int16 unidade =0; 
.................... int16 dezena =0; 
.................... float dezena1 =0; 
.................... int16 centena =0; 
.................... int16 resultado =0; 
.................... float resultado1 =0; 
.................... int virgula =0; 
.................... int kohm =0; 
.................... int mohm =0; 
.................... float y =0; 
.................... int32 valor =0; 
.................... float valor1 =0; 
.................... int16 leitura =0; 
.................... float k =0; 
.................... int i =0; 
.................... int d=0; 
.................... int caixa =0; 
.................... int c =0;  
.................... float v=0; 
.................... int a =0; 
....................  
.................... float subrotina( int16 leitura , int mohm , int kohm) 
.................... { 
....................  
.................... if(kohm==0 && mohm==0){ 
*
0D6A:  MOVF   3D,F
0D6C:  BTFSS  FD8.2
0D6E:  GOTO   1988
0D72:  MOVF   3C,F
0D74:  BTFSS  FD8.2
0D76:  GOTO   1988
....................  
.................... if(leitura >= 1600 && leitura <= 1855) 
0D7A:  MOVF   3B,W
0D7C:  SUBLW  05
0D7E:  BC    0DA2
0D80:  XORLW  FF
0D82:  BNZ   0D8A
0D84:  MOVF   3A,W
0D86:  SUBLW  3F
0D88:  BC    0DA2
0D8A:  MOVF   3B,W
0D8C:  SUBLW  07
0D8E:  BNC   0DA2
0D90:  BNZ   0D98
0D92:  MOVF   3A,W
0D94:  SUBLW  3F
0D96:  BNC   0DA2
.................... {y=1;} 
0D98:  CLRF   22
0D9A:  CLRF   21
0D9C:  CLRF   20
0D9E:  MOVLW  7F
0DA0:  MOVWF  1F
.................... if(leitura >= 1856 && leitura <= 2016) 
0DA2:  MOVF   3B,W
0DA4:  SUBLW  06
0DA6:  BC    0DD0
0DA8:  XORLW  FF
0DAA:  BNZ   0DB2
0DAC:  MOVF   3A,W
0DAE:  SUBLW  3F
0DB0:  BC    0DD0
0DB2:  MOVF   3B,W
0DB4:  SUBLW  07
0DB6:  BNC   0DD0
0DB8:  BNZ   0DC0
0DBA:  MOVF   3A,W
0DBC:  SUBLW  E0
0DBE:  BNC   0DD0
.................... {y=1.1;} 
0DC0:  MOVLW  CD
0DC2:  MOVWF  22
0DC4:  MOVLW  CC
0DC6:  MOVWF  21
0DC8:  MOVLW  0C
0DCA:  MOVWF  20
0DCC:  MOVLW  7F
0DCE:  MOVWF  1F
.................... if(leitura >= 2017 && leitura <= 2176)  
0DD0:  MOVF   3B,W
0DD2:  SUBLW  06
0DD4:  BC    0DFE
0DD6:  XORLW  FF
0DD8:  BNZ   0DE0
0DDA:  MOVF   3A,W
0DDC:  SUBLW  E0
0DDE:  BC    0DFE
0DE0:  MOVF   3B,W
0DE2:  SUBLW  08
0DE4:  BNC   0DFE
0DE6:  BNZ   0DEE
0DE8:  MOVF   3A,W
0DEA:  SUBLW  80
0DEC:  BNC   0DFE
.................... {y=1.2;} 
0DEE:  MOVLW  9A
0DF0:  MOVWF  22
0DF2:  MOVLW  99
0DF4:  MOVWF  21
0DF6:  MOVLW  19
0DF8:  MOVWF  20
0DFA:  MOVLW  7F
0DFC:  MOVWF  1F
.................... if(leitura >= 2177 && leitura <= 2400) 
0DFE:  MOVF   3B,W
0E00:  SUBLW  07
0E02:  BC    0E2A
0E04:  XORLW  FF
0E06:  BNZ   0E0E
0E08:  MOVF   3A,W
0E0A:  SUBLW  80
0E0C:  BC    0E2A
0E0E:  MOVF   3B,W
0E10:  SUBLW  09
0E12:  BNC   0E2A
0E14:  BNZ   0E1C
0E16:  MOVF   3A,W
0E18:  SUBLW  60
0E1A:  BNC   0E2A
.................... {y=1.3;} 
0E1C:  MOVLW  66
0E1E:  MOVWF  22
0E20:  MOVWF  21
0E22:  MOVLW  26
0E24:  MOVWF  20
0E26:  MOVLW  7F
0E28:  MOVWF  1F
.................... if(leitura >= 2401 && leitura <= 2656) 
0E2A:  MOVF   3B,W
0E2C:  SUBLW  08
0E2E:  BC    0E54
0E30:  XORLW  FF
0E32:  BNZ   0E3A
0E34:  MOVF   3A,W
0E36:  SUBLW  60
0E38:  BC    0E54
0E3A:  MOVF   3B,W
0E3C:  SUBLW  0A
0E3E:  BNC   0E54
0E40:  BNZ   0E48
0E42:  MOVF   3A,W
0E44:  SUBLW  60
0E46:  BNC   0E54
.................... {y=1.5;} 
0E48:  CLRF   22
0E4A:  CLRF   21
0E4C:  MOVLW  40
0E4E:  MOVWF  20
0E50:  MOVLW  7F
0E52:  MOVWF  1F
.................... if(leitura >= 2657 && leitura <= 2880) 
0E54:  MOVF   3B,W
0E56:  SUBLW  09
0E58:  BC    0E82
0E5A:  XORLW  FF
0E5C:  BNZ   0E64
0E5E:  MOVF   3A,W
0E60:  SUBLW  60
0E62:  BC    0E82
0E64:  MOVF   3B,W
0E66:  SUBLW  0B
0E68:  BNC   0E82
0E6A:  BNZ   0E72
0E6C:  MOVF   3A,W
0E6E:  SUBLW  40
0E70:  BNC   0E82
.................... {y=1.6;} 
0E72:  MOVLW  CD
0E74:  MOVWF  22
0E76:  MOVLW  CC
0E78:  MOVWF  21
0E7A:  MOVLW  4C
0E7C:  MOVWF  20
0E7E:  MOVLW  7F
0E80:  MOVWF  1F
.................... if(leitura >= 2881 && leitura <= 3168) 
0E82:  MOVF   3B,W
0E84:  SUBLW  0A
0E86:  BC    0EAC
0E88:  XORLW  FF
0E8A:  BNZ   0E92
0E8C:  MOVF   3A,W
0E8E:  SUBLW  40
0E90:  BC    0EAC
0E92:  MOVF   3B,W
0E94:  SUBLW  0C
0E96:  BNC   0EAC
0E98:  BNZ   0EA0
0E9A:  MOVF   3A,W
0E9C:  SUBLW  60
0E9E:  BNC   0EAC
.................... {y=1.8;} 
0EA0:  MOVLW  66
0EA2:  MOVWF  22
0EA4:  MOVWF  21
0EA6:  MOVWF  20
0EA8:  MOVLW  7F
0EAA:  MOVWF  1F
.................... if(leitura >= 3169 && leitura <= 3488) 
0EAC:  MOVF   3B,W
0EAE:  SUBLW  0B
0EB0:  BC    0ED4
0EB2:  XORLW  FF
0EB4:  BNZ   0EBC
0EB6:  MOVF   3A,W
0EB8:  SUBLW  60
0EBA:  BC    0ED4
0EBC:  MOVF   3B,W
0EBE:  SUBLW  0D
0EC0:  BNC   0ED4
0EC2:  BNZ   0ECA
0EC4:  MOVF   3A,W
0EC6:  SUBLW  A0
0EC8:  BNC   0ED4
.................... {y=2;} 
0ECA:  CLRF   22
0ECC:  CLRF   21
0ECE:  CLRF   20
0ED0:  MOVLW  80
0ED2:  MOVWF  1F
.................... if(leitura >= 3489 && leitura <= 3776) 
0ED4:  MOVF   3B,W
0ED6:  SUBLW  0C
0ED8:  BC    0F02
0EDA:  XORLW  FF
0EDC:  BNZ   0EE4
0EDE:  MOVF   3A,W
0EE0:  SUBLW  A0
0EE2:  BC    0F02
0EE4:  MOVF   3B,W
0EE6:  SUBLW  0E
0EE8:  BNC   0F02
0EEA:  BNZ   0EF2
0EEC:  MOVF   3A,W
0EEE:  SUBLW  C0
0EF0:  BNC   0F02
.................... {y=2.2;} 
0EF2:  MOVLW  CD
0EF4:  MOVWF  22
0EF6:  MOVLW  CC
0EF8:  MOVWF  21
0EFA:  MOVLW  0C
0EFC:  MOVWF  20
0EFE:  MOVLW  80
0F00:  MOVWF  1F
.................... if(leitura >= 3777 && leitura <= 4128) 
0F02:  MOVF   3B,W
0F04:  SUBLW  0D
0F06:  BC    0F30
0F08:  XORLW  FF
0F0A:  BNZ   0F12
0F0C:  MOVF   3A,W
0F0E:  SUBLW  C0
0F10:  BC    0F30
0F12:  MOVF   3B,W
0F14:  SUBLW  10
0F16:  BNC   0F30
0F18:  BNZ   0F20
0F1A:  MOVF   3A,W
0F1C:  SUBLW  20
0F1E:  BNC   0F30
.................... {y=2.4;} 
0F20:  MOVLW  9A
0F22:  MOVWF  22
0F24:  MOVLW  99
0F26:  MOVWF  21
0F28:  MOVLW  19
0F2A:  MOVWF  20
0F2C:  MOVLW  80
0F2E:  MOVWF  1F
.................... if(leitura >= 4129 && leitura <= 4576) 
0F30:  MOVF   3B,W
0F32:  SUBLW  0F
0F34:  BC    0F5E
0F36:  XORLW  FF
0F38:  BNZ   0F40
0F3A:  MOVF   3A,W
0F3C:  SUBLW  20
0F3E:  BC    0F5E
0F40:  MOVF   3B,W
0F42:  SUBLW  11
0F44:  BNC   0F5E
0F46:  BNZ   0F4E
0F48:  MOVF   3A,W
0F4A:  SUBLW  E0
0F4C:  BNC   0F5E
.................... {y=2.7;} 
0F4E:  MOVLW  CD
0F50:  MOVWF  22
0F52:  MOVLW  CC
0F54:  MOVWF  21
0F56:  MOVLW  2C
0F58:  MOVWF  20
0F5A:  MOVLW  80
0F5C:  MOVWF  1F
.................... if(leitura >= 4577 && leitura <= 5024) 
0F5E:  MOVF   3B,W
0F60:  SUBLW  10
0F62:  BC    0F88
0F64:  XORLW  FF
0F66:  BNZ   0F6E
0F68:  MOVF   3A,W
0F6A:  SUBLW  E0
0F6C:  BC    0F88
0F6E:  MOVF   3B,W
0F70:  SUBLW  13
0F72:  BNC   0F88
0F74:  BNZ   0F7C
0F76:  MOVF   3A,W
0F78:  SUBLW  A0
0F7A:  BNC   0F88
.................... {y=3;} 
0F7C:  CLRF   22
0F7E:  CLRF   21
0F80:  MOVLW  40
0F82:  MOVWF  20
0F84:  MOVLW  80
0F86:  MOVWF  1F
.................... if(leitura >= 5025 && leitura <= 5440) 
0F88:  MOVF   3B,W
0F8A:  SUBLW  12
0F8C:  BC    0FB4
0F8E:  XORLW  FF
0F90:  BNZ   0F98
0F92:  MOVF   3A,W
0F94:  SUBLW  A0
0F96:  BC    0FB4
0F98:  MOVF   3B,W
0F9A:  SUBLW  15
0F9C:  BNC   0FB4
0F9E:  BNZ   0FA6
0FA0:  MOVF   3A,W
0FA2:  SUBLW  40
0FA4:  BNC   0FB4
.................... {y=3.3;} 
0FA6:  MOVLW  33
0FA8:  MOVWF  22
0FAA:  MOVWF  21
0FAC:  MOVLW  53
0FAE:  MOVWF  20
0FB0:  MOVLW  80
0FB2:  MOVWF  1F
.................... if(leitura >= 5441 && leitura <= 5856) 
0FB4:  MOVF   3B,W
0FB6:  SUBLW  14
0FB8:  BC    0FDE
0FBA:  XORLW  FF
0FBC:  BNZ   0FC4
0FBE:  MOVF   3A,W
0FC0:  SUBLW  40
0FC2:  BC    0FDE
0FC4:  MOVF   3B,W
0FC6:  SUBLW  16
0FC8:  BNC   0FDE
0FCA:  BNZ   0FD2
0FCC:  MOVF   3A,W
0FCE:  SUBLW  E0
0FD0:  BNC   0FDE
.................... {y=3.6;} 
0FD2:  MOVLW  66
0FD4:  MOVWF  22
0FD6:  MOVWF  21
0FD8:  MOVWF  20
0FDA:  MOVLW  80
0FDC:  MOVWF  1F
.................... if(leitura >= 5857 && leitura <= 6336) 
0FDE:  MOVF   3B,W
0FE0:  SUBLW  15
0FE2:  BC    100C
0FE4:  XORLW  FF
0FE6:  BNZ   0FEE
0FE8:  MOVF   3A,W
0FEA:  SUBLW  E0
0FEC:  BC    100C
0FEE:  MOVF   3B,W
0FF0:  SUBLW  18
0FF2:  BNC   100C
0FF4:  BNZ   0FFC
0FF6:  MOVF   3A,W
0FF8:  SUBLW  C0
0FFA:  BNC   100C
.................... {y=3.9;} 
0FFC:  MOVLW  9A
0FFE:  MOVWF  22
1000:  MOVLW  99
1002:  MOVWF  21
1004:  MOVLW  79
1006:  MOVWF  20
1008:  MOVLW  80
100A:  MOVWF  1F
.................... if(leitura >= 6337 && leitura <= 6880) 
100C:  MOVF   3B,W
100E:  SUBLW  17
1010:  BC    103A
1012:  XORLW  FF
1014:  BNZ   101C
1016:  MOVF   3A,W
1018:  SUBLW  C0
101A:  BC    103A
101C:  MOVF   3B,W
101E:  SUBLW  1A
1020:  BNC   103A
1022:  BNZ   102A
1024:  MOVF   3A,W
1026:  SUBLW  E0
1028:  BNC   103A
.................... {y=4.3;} 
102A:  MOVLW  9A
102C:  MOVWF  22
102E:  MOVLW  99
1030:  MOVWF  21
1032:  MOVLW  09
1034:  MOVWF  20
1036:  MOVLW  81
1038:  MOVWF  1F
.................... if(leitura >= 6881 && leitura <= 7424) 
103A:  MOVF   3B,W
103C:  SUBLW  19
103E:  BC    1072
1040:  XORLW  FF
1042:  BNZ   104A
1044:  MOVF   3A,W
1046:  SUBLW  E0
1048:  BC    1072
104A:  MOVF   3B,W
104C:  SUBLW  1D
104E:  BNC   1072
1050:  BNZ   1058
1052:  MOVF   3A,W
1054:  SUBLW  00
1056:  BNC   1072
.................... {y=4.7; if(kohm==0 && mohm==0){c=17;}} 
1058:  MOVLW  66
105A:  MOVWF  22
105C:  MOVWF  21
105E:  MOVLW  16
1060:  MOVWF  20
1062:  MOVLW  81
1064:  MOVWF  1F
1066:  MOVF   3D,F
1068:  BNZ   1072
106A:  MOVF   3C,F
106C:  BNZ   1072
106E:  MOVLW  11
1070:  MOVWF  34
....................  
.................... if(leitura >= 7425 && leitura <= 8000) 
1072:  MOVF   3B,W
1074:  SUBLW  1C
1076:  BC    109E
1078:  XORLW  FF
107A:  BNZ   1082
107C:  MOVF   3A,W
107E:  SUBLW  00
1080:  BC    109E
1082:  MOVF   3B,W
1084:  SUBLW  1F
1086:  BNC   109E
1088:  BNZ   1090
108A:  MOVF   3A,W
108C:  SUBLW  40
108E:  BNC   109E
.................... {y=5.1;} 
1090:  MOVLW  33
1092:  MOVWF  22
1094:  MOVWF  21
1096:  MOVLW  23
1098:  MOVWF  20
109A:  MOVLW  81
109C:  MOVWF  1F
.................... if(leitura >= 8001 && leitura <= 8704) 
109E:  MOVF   3B,W
10A0:  SUBLW  1E
10A2:  BC    10C8
10A4:  XORLW  FF
10A6:  BNZ   10AE
10A8:  MOVF   3A,W
10AA:  SUBLW  40
10AC:  BC    10C8
10AE:  MOVF   3B,W
10B0:  SUBLW  22
10B2:  BNC   10C8
10B4:  BNZ   10BC
10B6:  MOVF   3A,W
10B8:  SUBLW  00
10BA:  BNC   10C8
.................... {y=5.6;} 
10BC:  MOVLW  33
10BE:  MOVWF  22
10C0:  MOVWF  21
10C2:  MOVWF  20
10C4:  MOVLW  81
10C6:  MOVWF  1F
.................... if(leitura >= 8705 && leitura <= 9440) 
10C8:  MOVF   3B,W
10CA:  SUBLW  21
10CC:  BC    10F4
10CE:  XORLW  FF
10D0:  BNZ   10D8
10D2:  MOVF   3A,W
10D4:  SUBLW  00
10D6:  BC    10F4
10D8:  MOVF   3B,W
10DA:  SUBLW  24
10DC:  BNC   10F4
10DE:  BNZ   10E6
10E0:  MOVF   3A,W
10E2:  SUBLW  E0
10E4:  BNC   10F4
.................... {y=6.2;} 
10E6:  MOVLW  66
10E8:  MOVWF  22
10EA:  MOVWF  21
10EC:  MOVLW  46
10EE:  MOVWF  20
10F0:  MOVLW  81
10F2:  MOVWF  1F
.................... if(leitura >= 9441 && leitura <= 10208) 
10F4:  MOVF   3B,W
10F6:  SUBLW  23
10F8:  BC    1122
10FA:  XORLW  FF
10FC:  BNZ   1104
10FE:  MOVF   3A,W
1100:  SUBLW  E0
1102:  BC    1122
1104:  MOVF   3B,W
1106:  SUBLW  27
1108:  BNC   1122
110A:  BNZ   1112
110C:  MOVF   3A,W
110E:  SUBLW  E0
1110:  BNC   1122
.................... {y=6.8;} 
1112:  MOVLW  9A
1114:  MOVWF  22
1116:  MOVLW  99
1118:  MOVWF  21
111A:  MOVLW  59
111C:  MOVWF  20
111E:  MOVLW  81
1120:  MOVWF  1F
.................... if(leitura >= 10209 && leitura <= 11040) 
1122:  MOVF   3B,W
1124:  SUBLW  26
1126:  BC    114C
1128:  XORLW  FF
112A:  BNZ   1132
112C:  MOVF   3A,W
112E:  SUBLW  E0
1130:  BC    114C
1132:  MOVF   3B,W
1134:  SUBLW  2B
1136:  BNC   114C
1138:  BNZ   1140
113A:  MOVF   3A,W
113C:  SUBLW  20
113E:  BNC   114C
.................... {y=7.5;}  
1140:  CLRF   22
1142:  CLRF   21
1144:  MOVLW  70
1146:  MOVWF  20
1148:  MOVLW  81
114A:  MOVWF  1F
.................... if(leitura >= 11041 && leitura <= 11968) 
114C:  MOVF   3B,W
114E:  SUBLW  2A
1150:  BC    1178
1152:  XORLW  FF
1154:  BNZ   115C
1156:  MOVF   3A,W
1158:  SUBLW  20
115A:  BC    1178
115C:  MOVF   3B,W
115E:  SUBLW  2E
1160:  BNC   1178
1162:  BNZ   116A
1164:  MOVF   3A,W
1166:  SUBLW  C0
1168:  BNC   1178
.................... {y=8.2;} 
116A:  MOVLW  33
116C:  MOVWF  22
116E:  MOVWF  21
1170:  MOVLW  03
1172:  MOVWF  20
1174:  MOVLW  82
1176:  MOVWF  1F
.................... if(leitura >= 11969 && leitura <= 12960) 
1178:  MOVF   3B,W
117A:  SUBLW  2D
117C:  BC    11A6
117E:  XORLW  FF
1180:  BNZ   1188
1182:  MOVF   3A,W
1184:  SUBLW  C0
1186:  BC    11A6
1188:  MOVF   3B,W
118A:  SUBLW  32
118C:  BNC   11A6
118E:  BNZ   1196
1190:  MOVF   3A,W
1192:  SUBLW  A0
1194:  BNC   11A6
.................... {y=9.1;} 
1196:  MOVLW  9A
1198:  MOVWF  22
119A:  MOVLW  99
119C:  MOVWF  21
119E:  MOVLW  11
11A0:  MOVWF  20
11A2:  MOVLW  82
11A4:  MOVWF  1F
.................... if(leitura >= 12961 && leitura <= 13816) 
11A6:  MOVF   3B,W
11A8:  SUBLW  31
11AA:  BC    11D0
11AC:  XORLW  FF
11AE:  BNZ   11B6
11B0:  MOVF   3A,W
11B2:  SUBLW  A0
11B4:  BC    11D0
11B6:  MOVF   3B,W
11B8:  SUBLW  35
11BA:  BNC   11D0
11BC:  BNZ   11C4
11BE:  MOVF   3A,W
11C0:  SUBLW  F8
11C2:  BNC   11D0
.................... {y=10;} 
11C4:  CLRF   22
11C6:  CLRF   21
11C8:  MOVLW  20
11CA:  MOVWF  20
11CC:  MOVLW  82
11CE:  MOVWF  1F
.................... if(leitura >= 13817 && leitura <= 14840) 
11D0:  MOVF   3B,W
11D2:  SUBLW  34
11D4:  BC    11FA
11D6:  XORLW  FF
11D8:  BNZ   11E0
11DA:  MOVF   3A,W
11DC:  SUBLW  F8
11DE:  BC    11FA
11E0:  MOVF   3B,W
11E2:  SUBLW  39
11E4:  BNC   11FA
11E6:  BNZ   11EE
11E8:  MOVF   3A,W
11EA:  SUBLW  F8
11EC:  BNC   11FA
.................... {y=11;} 
11EE:  CLRF   22
11F0:  CLRF   21
11F2:  MOVLW  30
11F4:  MOVWF  20
11F6:  MOVLW  82
11F8:  MOVWF  1F
.................... if(leitura >= 14841 && leitura <= 15832) 
11FA:  MOVF   3B,W
11FC:  SUBLW  38
11FE:  BC    1224
1200:  XORLW  FF
1202:  BNZ   120A
1204:  MOVF   3A,W
1206:  SUBLW  F8
1208:  BC    1224
120A:  MOVF   3B,W
120C:  SUBLW  3D
120E:  BNC   1224
1210:  BNZ   1218
1212:  MOVF   3A,W
1214:  SUBLW  D8
1216:  BNC   1224
.................... {y=12;} 
1218:  CLRF   22
121A:  CLRF   21
121C:  MOVLW  40
121E:  MOVWF  20
1220:  MOVLW  82
1222:  MOVWF  1F
.................... if(leitura >= 15833 && leitura <= 17240) 
1224:  MOVF   3B,W
1226:  SUBLW  3C
1228:  BC    124E
122A:  XORLW  FF
122C:  BNZ   1234
122E:  MOVF   3A,W
1230:  SUBLW  D8
1232:  BC    124E
1234:  MOVF   3B,W
1236:  SUBLW  43
1238:  BNC   124E
123A:  BNZ   1242
123C:  MOVF   3A,W
123E:  SUBLW  58
1240:  BNC   124E
.................... {y=13;} 
1242:  CLRF   22
1244:  CLRF   21
1246:  MOVLW  50
1248:  MOVWF  20
124A:  MOVLW  82
124C:  MOVWF  1F
.................... if(leitura >= 17241 && leitura <= 18616) 
124E:  MOVF   3B,W
1250:  SUBLW  42
1252:  BC    1278
1254:  XORLW  FF
1256:  BNZ   125E
1258:  MOVF   3A,W
125A:  SUBLW  58
125C:  BC    1278
125E:  MOVF   3B,W
1260:  SUBLW  48
1262:  BNC   1278
1264:  BNZ   126C
1266:  MOVF   3A,W
1268:  SUBLW  B8
126A:  BNC   1278
.................... {y=15;} 
126C:  CLRF   22
126E:  CLRF   21
1270:  MOVLW  70
1272:  MOVWF  20
1274:  MOVLW  82
1276:  MOVWF  1F
.................... if(leitura >= 18617 && leitura <= 19864) 
1278:  MOVF   3B,W
127A:  SUBLW  47
127C:  BC    12A0
127E:  XORLW  FF
1280:  BNZ   1288
1282:  MOVF   3A,W
1284:  SUBLW  B8
1286:  BC    12A0
1288:  MOVF   3B,W
128A:  SUBLW  4D
128C:  BNC   12A0
128E:  BNZ   1296
1290:  MOVF   3A,W
1292:  SUBLW  98
1294:  BNC   12A0
.................... {y=16;} 
1296:  CLRF   22
1298:  CLRF   21
129A:  CLRF   20
129C:  MOVLW  83
129E:  MOVWF  1F
.................... if(leitura >= 19865 && leitura <= 21432) 
12A0:  MOVF   3B,W
12A2:  SUBLW  4C
12A4:  BC    12CA
12A6:  XORLW  FF
12A8:  BNZ   12B0
12AA:  MOVF   3A,W
12AC:  SUBLW  98
12AE:  BC    12CA
12B0:  MOVF   3B,W
12B2:  SUBLW  53
12B4:  BNC   12CA
12B6:  BNZ   12BE
12B8:  MOVF   3A,W
12BA:  SUBLW  B8
12BC:  BNC   12CA
.................... {y=18;} 
12BE:  CLRF   22
12C0:  CLRF   21
12C2:  MOVLW  10
12C4:  MOVWF  20
12C6:  MOVLW  83
12C8:  MOVWF  1F
.................... if(leitura >= 21433 && leitura <= 22904) 
12CA:  MOVF   3B,W
12CC:  SUBLW  52
12CE:  BC    12F4
12D0:  XORLW  FF
12D2:  BNZ   12DA
12D4:  MOVF   3A,W
12D6:  SUBLW  B8
12D8:  BC    12F4
12DA:  MOVF   3B,W
12DC:  SUBLW  59
12DE:  BNC   12F4
12E0:  BNZ   12E8
12E2:  MOVF   3A,W
12E4:  SUBLW  78
12E6:  BNC   12F4
.................... {y=20;} 
12E8:  CLRF   22
12EA:  CLRF   21
12EC:  MOVLW  20
12EE:  MOVWF  20
12F0:  MOVLW  83
12F2:  MOVWF  1F
.................... if(leitura >= 22905 && leitura <= 24280) 
12F4:  MOVF   3B,W
12F6:  SUBLW  58
12F8:  BC    131E
12FA:  XORLW  FF
12FC:  BNZ   1304
12FE:  MOVF   3A,W
1300:  SUBLW  78
1302:  BC    131E
1304:  MOVF   3B,W
1306:  SUBLW  5E
1308:  BNC   131E
130A:  BNZ   1312
130C:  MOVF   3A,W
130E:  SUBLW  D8
1310:  BNC   131E
.................... {y=22;} 
1312:  CLRF   22
1314:  CLRF   21
1316:  MOVLW  30
1318:  MOVWF  20
131A:  MOVLW  83
131C:  MOVWF  1F
.................... if(leitura >= 24281 && leitura <= 25848) 
131E:  MOVF   3B,W
1320:  SUBLW  5D
1322:  BC    1348
1324:  XORLW  FF
1326:  BNZ   132E
1328:  MOVF   3A,W
132A:  SUBLW  D8
132C:  BC    1348
132E:  MOVF   3B,W
1330:  SUBLW  64
1332:  BNC   1348
1334:  BNZ   133C
1336:  MOVF   3A,W
1338:  SUBLW  F8
133A:  BNC   1348
.................... {y=24;} 
133C:  CLRF   22
133E:  CLRF   21
1340:  MOVLW  40
1342:  MOVWF  20
1344:  MOVLW  83
1346:  MOVWF  1F
.................... if(leitura >= 25849 && leitura <= 27608) 
1348:  MOVF   3B,W
134A:  SUBLW  63
134C:  BC    1372
134E:  XORLW  FF
1350:  BNZ   1358
1352:  MOVF   3A,W
1354:  SUBLW  F8
1356:  BC    1372
1358:  MOVF   3B,W
135A:  SUBLW  6B
135C:  BNC   1372
135E:  BNZ   1366
1360:  MOVF   3A,W
1362:  SUBLW  D8
1364:  BNC   1372
.................... {y=27;} 
1366:  CLRF   22
1368:  CLRF   21
136A:  MOVLW  58
136C:  MOVWF  20
136E:  MOVLW  83
1370:  MOVWF  1F
.................... if(leitura >= 27609 && leitura <= 29208) 
1372:  MOVF   3B,W
1374:  SUBLW  6A
1376:  BC    139C
1378:  XORLW  FF
137A:  BNZ   1382
137C:  MOVF   3A,W
137E:  SUBLW  D8
1380:  BC    139C
1382:  MOVF   3B,W
1384:  SUBLW  72
1386:  BNC   139C
1388:  BNZ   1390
138A:  MOVF   3A,W
138C:  SUBLW  18
138E:  BNC   139C
.................... {y=30;} 
1390:  CLRF   22
1392:  CLRF   21
1394:  MOVLW  70
1396:  MOVWF  20
1398:  MOVLW  83
139A:  MOVWF  1F
.................... if(leitura >= 29209 && leitura <= 30648) 
139C:  MOVF   3B,W
139E:  SUBLW  71
13A0:  BC    13C6
13A2:  XORLW  FF
13A4:  BNZ   13AC
13A6:  MOVF   3A,W
13A8:  SUBLW  18
13AA:  BC    13C6
13AC:  MOVF   3B,W
13AE:  SUBLW  77
13B0:  BNC   13C6
13B2:  BNZ   13BA
13B4:  MOVF   3A,W
13B6:  SUBLW  B8
13B8:  BNC   13C6
.................... {y=33;} 
13BA:  CLRF   22
13BC:  CLRF   21
13BE:  MOVLW  04
13C0:  MOVWF  20
13C2:  MOVLW  84
13C4:  MOVWF  1F
.................... if(leitura >= 30649 && leitura <= 31992) 
13C6:  MOVF   3B,W
13C8:  SUBLW  76
13CA:  BC    13F0
13CC:  XORLW  FF
13CE:  BNZ   13D6
13D0:  MOVF   3A,W
13D2:  SUBLW  B8
13D4:  BC    13F0
13D6:  MOVF   3B,W
13D8:  SUBLW  7C
13DA:  BNC   13F0
13DC:  BNZ   13E4
13DE:  MOVF   3A,W
13E0:  SUBLW  F8
13E2:  BNC   13F0
.................... {y=36;} 
13E4:  CLRF   22
13E6:  CLRF   21
13E8:  MOVLW  10
13EA:  MOVWF  20
13EC:  MOVLW  84
13EE:  MOVWF  1F
.................... if(leitura >= 31993 && leitura <= 33077) 
13F0:  MOVF   3B,W
13F2:  SUBLW  7B
13F4:  BC    141A
13F6:  XORLW  FF
13F8:  BNZ   1400
13FA:  MOVF   3A,W
13FC:  SUBLW  F8
13FE:  BC    141A
1400:  MOVF   3B,W
1402:  SUBLW  81
1404:  BNC   141A
1406:  BNZ   140E
1408:  MOVF   3A,W
140A:  SUBLW  35
140C:  BNC   141A
.................... {y=39;} 
140E:  CLRF   22
1410:  CLRF   21
1412:  MOVLW  1C
1414:  MOVWF  20
1416:  MOVLW  84
1418:  MOVWF  1F
.................... if(leitura >= 33078 && leitura <= 34981) 
141A:  MOVF   3B,W
141C:  SUBLW  80
141E:  BC    1444
1420:  XORLW  FF
1422:  BNZ   142A
1424:  MOVF   3A,W
1426:  SUBLW  35
1428:  BC    1444
142A:  MOVF   3B,W
142C:  SUBLW  88
142E:  BNC   1444
1430:  BNZ   1438
1432:  MOVF   3A,W
1434:  SUBLW  A5
1436:  BNC   1444
.................... {y=43;} 
1438:  CLRF   22
143A:  CLRF   21
143C:  MOVLW  2C
143E:  MOVWF  20
1440:  MOVLW  84
1442:  MOVWF  1F
.................... if(leitura >= 34982  && leitura <= 36312) 
1444:  MOVF   3B,W
1446:  SUBLW  87
1448:  BC    146E
144A:  XORLW  FF
144C:  BNZ   1454
144E:  MOVF   3A,W
1450:  SUBLW  A5
1452:  BC    146E
1454:  MOVF   3B,W
1456:  SUBLW  8D
1458:  BNC   146E
145A:  BNZ   1462
145C:  MOVF   3A,W
145E:  SUBLW  D8
1460:  BNC   146E
.................... {y=47;} 
1462:  CLRF   22
1464:  CLRF   21
1466:  MOVLW  3C
1468:  MOVWF  20
146A:  MOVLW  84
146C:  MOVWF  1F
.................... if(leitura >= 36313  && leitura <= 37720) 
146E:  MOVF   3B,W
1470:  SUBLW  8C
1472:  BC    1498
1474:  XORLW  FF
1476:  BNZ   147E
1478:  MOVF   3A,W
147A:  SUBLW  D8
147C:  BC    1498
147E:  MOVF   3B,W
1480:  SUBLW  93
1482:  BNC   1498
1484:  BNZ   148C
1486:  MOVF   3A,W
1488:  SUBLW  58
148A:  BNC   1498
.................... {y=51;} 
148C:  CLRF   22
148E:  CLRF   21
1490:  MOVLW  4C
1492:  MOVWF  20
1494:  MOVLW  84
1496:  MOVWF  1F
.................... if(leitura >= 37721  && leitura <= 39256) 
1498:  MOVF   3B,W
149A:  SUBLW  92
149C:  BC    14C2
149E:  XORLW  FF
14A0:  BNZ   14A8
14A2:  MOVF   3A,W
14A4:  SUBLW  58
14A6:  BC    14C2
14A8:  MOVF   3B,W
14AA:  SUBLW  99
14AC:  BNC   14C2
14AE:  BNZ   14B6
14B0:  MOVF   3A,W
14B2:  SUBLW  58
14B4:  BNC   14C2
.................... {y=56;} 
14B6:  CLRF   22
14B8:  CLRF   21
14BA:  MOVLW  60
14BC:  MOVWF  20
14BE:  MOVLW  84
14C0:  MOVWF  1F
.................... if(leitura >= 39257  && leitura <= 40728) 
14C2:  MOVF   3B,W
14C4:  SUBLW  98
14C6:  BC    14EC
14C8:  XORLW  FF
14CA:  BNZ   14D2
14CC:  MOVF   3A,W
14CE:  SUBLW  58
14D0:  BC    14EC
14D2:  MOVF   3B,W
14D4:  SUBLW  9F
14D6:  BNC   14EC
14D8:  BNZ   14E0
14DA:  MOVF   3A,W
14DC:  SUBLW  18
14DE:  BNC   14EC
.................... {y=62;} 
14E0:  CLRF   22
14E2:  CLRF   21
14E4:  MOVLW  78
14E6:  MOVWF  20
14E8:  MOVLW  84
14EA:  MOVWF  1F
.................... if(leitura >= 40729  && leitura <= 42136) 
14EC:  MOVF   3B,W
14EE:  SUBLW  9E
14F0:  BC    1516
14F2:  XORLW  FF
14F4:  BNZ   14FC
14F6:  MOVF   3A,W
14F8:  SUBLW  18
14FA:  BC    1516
14FC:  MOVF   3B,W
14FE:  SUBLW  A4
1500:  BNC   1516
1502:  BNZ   150A
1504:  MOVF   3A,W
1506:  SUBLW  98
1508:  BNC   1516
.................... {y=68;} 
150A:  CLRF   22
150C:  CLRF   21
150E:  MOVLW  08
1510:  MOVWF  20
1512:  MOVLW  85
1514:  MOVWF  1F
.................... if(leitura >= 42137 && leitura <= 43512) 
1516:  MOVF   3B,W
1518:  SUBLW  A3
151A:  BC    1540
151C:  XORLW  FF
151E:  BNZ   1526
1520:  MOVF   3A,W
1522:  SUBLW  98
1524:  BC    1540
1526:  MOVF   3B,W
1528:  SUBLW  A9
152A:  BNC   1540
152C:  BNZ   1534
152E:  MOVF   3A,W
1530:  SUBLW  F8
1532:  BNC   1540
.................... {y=75;} 
1534:  CLRF   22
1536:  CLRF   21
1538:  MOVLW  16
153A:  MOVWF  20
153C:  MOVLW  85
153E:  MOVWF  1F
.................... if(leitura >= 43513 && leitura <= 44856) 
1540:  MOVF   3B,W
1542:  SUBLW  A8
1544:  BC    156A
1546:  XORLW  FF
1548:  BNZ   1550
154A:  MOVF   3A,W
154C:  SUBLW  F8
154E:  BC    156A
1550:  MOVF   3B,W
1552:  SUBLW  AF
1554:  BNC   156A
1556:  BNZ   155E
1558:  MOVF   3A,W
155A:  SUBLW  38
155C:  BNC   156A
.................... {y=82;} 
155E:  CLRF   22
1560:  CLRF   21
1562:  MOVLW  24
1564:  MOVWF  20
1566:  MOVLW  85
1568:  MOVWF  1F
.................... if(leitura >= 44857  && leitura <= 45168) 
156A:  MOVF   3B,W
156C:  SUBLW  AE
156E:  BC    1594
1570:  XORLW  FF
1572:  BNZ   157A
1574:  MOVF   3A,W
1576:  SUBLW  38
1578:  BC    1594
157A:  MOVF   3B,W
157C:  SUBLW  B0
157E:  BNC   1594
1580:  BNZ   1588
1582:  MOVF   3A,W
1584:  SUBLW  70
1586:  BNC   1594
.................... {y=91;} 
1588:  CLRF   22
158A:  CLRF   21
158C:  MOVLW  36
158E:  MOVWF  20
1590:  MOVLW  85
1592:  MOVWF  1F
.................... if(leitura >= 45169  && leitura <= 47384) 
1594:  MOVF   3B,W
1596:  SUBLW  AF
1598:  BC    15BE
159A:  XORLW  FF
159C:  BNZ   15A4
159E:  MOVF   3A,W
15A0:  SUBLW  70
15A2:  BC    15BE
15A4:  MOVF   3B,W
15A6:  SUBLW  B9
15A8:  BNC   15BE
15AA:  BNZ   15B2
15AC:  MOVF   3A,W
15AE:  SUBLW  18
15B0:  BNC   15BE
.................... {y=100;} 
15B2:  CLRF   22
15B4:  CLRF   21
15B6:  MOVLW  48
15B8:  MOVWF  20
15BA:  MOVLW  85
15BC:  MOVWF  1F
.................... if(leitura >= 47385  && leitura <= 48536) 
15BE:  MOVF   3B,W
15C0:  SUBLW  B8
15C2:  BC    15E8
15C4:  XORLW  FF
15C6:  BNZ   15CE
15C8:  MOVF   3A,W
15CA:  SUBLW  18
15CC:  BC    15E8
15CE:  MOVF   3B,W
15D0:  SUBLW  BD
15D2:  BNC   15E8
15D4:  BNZ   15DC
15D6:  MOVF   3A,W
15D8:  SUBLW  98
15DA:  BNC   15E8
.................... {y=110;} 
15DC:  CLRF   22
15DE:  CLRF   21
15E0:  MOVLW  5C
15E2:  MOVWF  20
15E4:  MOVLW  85
15E6:  MOVWF  1F
.................... if(leitura >= 48537  && leitura <= 49560) 
15E8:  MOVF   3B,W
15EA:  SUBLW  BC
15EC:  BC    1612
15EE:  XORLW  FF
15F0:  BNZ   15F8
15F2:  MOVF   3A,W
15F4:  SUBLW  98
15F6:  BC    1612
15F8:  MOVF   3B,W
15FA:  SUBLW  C1
15FC:  BNC   1612
15FE:  BNZ   1606
1600:  MOVF   3A,W
1602:  SUBLW  98
1604:  BNC   1612
.................... {y=120;} 
1606:  CLRF   22
1608:  CLRF   21
160A:  MOVLW  70
160C:  MOVWF  20
160E:  MOVLW  85
1610:  MOVWF  1F
.................... if(leitura >= 49561  && leitura <= 50808) 
1612:  MOVF   3B,W
1614:  SUBLW  C0
1616:  BC    163C
1618:  XORLW  FF
161A:  BNZ   1622
161C:  MOVF   3A,W
161E:  SUBLW  98
1620:  BC    163C
1622:  MOVF   3B,W
1624:  SUBLW  C6
1626:  BNC   163C
1628:  BNZ   1630
162A:  MOVF   3A,W
162C:  SUBLW  78
162E:  BNC   163C
.................... {y=130;} 
1630:  CLRF   22
1632:  CLRF   21
1634:  MOVLW  02
1636:  MOVWF  20
1638:  MOVLW  86
163A:  MOVWF  1F
.................... if(leitura >= 50809  && leitura <= 51928) 
163C:  MOVF   3B,W
163E:  SUBLW  C5
1640:  BC    1666
1642:  XORLW  FF
1644:  BNZ   164C
1646:  MOVF   3A,W
1648:  SUBLW  78
164A:  BC    1666
164C:  MOVF   3B,W
164E:  SUBLW  CA
1650:  BNC   1666
1652:  BNZ   165A
1654:  MOVF   3A,W
1656:  SUBLW  D8
1658:  BNC   1666
.................... {y=150;} 
165A:  CLRF   22
165C:  CLRF   21
165E:  MOVLW  16
1660:  MOVWF  20
1662:  MOVLW  86
1664:  MOVWF  1F
.................... if(leitura >= 51929 && leitura <= 52856) 
1666:  MOVF   3B,W
1668:  SUBLW  C9
166A:  BC    1690
166C:  XORLW  FF
166E:  BNZ   1676
1670:  MOVF   3A,W
1672:  SUBLW  D8
1674:  BC    1690
1676:  MOVF   3B,W
1678:  SUBLW  CE
167A:  BNC   1690
167C:  BNZ   1684
167E:  MOVF   3A,W
1680:  SUBLW  78
1682:  BNC   1690
.................... {y=160;} 
1684:  CLRF   22
1686:  CLRF   21
1688:  MOVLW  20
168A:  MOVWF  20
168C:  MOVLW  86
168E:  MOVWF  1F
.................... if(leitura >= 52857 && leitura <= 53880) 
1690:  MOVF   3B,W
1692:  SUBLW  CD
1694:  BC    16BA
1696:  XORLW  FF
1698:  BNZ   16A0
169A:  MOVF   3A,W
169C:  SUBLW  78
169E:  BC    16BA
16A0:  MOVF   3B,W
16A2:  SUBLW  D2
16A4:  BNC   16BA
16A6:  BNZ   16AE
16A8:  MOVF   3A,W
16AA:  SUBLW  78
16AC:  BNC   16BA
.................... {y=180;} 
16AE:  CLRF   22
16B0:  CLRF   21
16B2:  MOVLW  34
16B4:  MOVWF  20
16B6:  MOVLW  86
16B8:  MOVWF  1F
.................... if(leitura >= 53881  && leitura <= 54776) 
16BA:  MOVF   3B,W
16BC:  SUBLW  D1
16BE:  BC    16E4
16C0:  XORLW  FF
16C2:  BNZ   16CA
16C4:  MOVF   3A,W
16C6:  SUBLW  78
16C8:  BC    16E4
16CA:  MOVF   3B,W
16CC:  SUBLW  D5
16CE:  BNC   16E4
16D0:  BNZ   16D8
16D2:  MOVF   3A,W
16D4:  SUBLW  F8
16D6:  BNC   16E4
.................... {y=200;} 
16D8:  CLRF   22
16DA:  CLRF   21
16DC:  MOVLW  48
16DE:  MOVWF  20
16E0:  MOVLW  86
16E2:  MOVWF  1F
.................... if(leitura >= 54777  && leitura <= 55544) 
16E4:  MOVF   3B,W
16E6:  SUBLW  D4
16E8:  BC    170E
16EA:  XORLW  FF
16EC:  BNZ   16F4
16EE:  MOVF   3A,W
16F0:  SUBLW  F8
16F2:  BC    170E
16F4:  MOVF   3B,W
16F6:  SUBLW  D8
16F8:  BNC   170E
16FA:  BNZ   1702
16FC:  MOVF   3A,W
16FE:  SUBLW  F8
1700:  BNC   170E
.................... {y=220;} 
1702:  CLRF   22
1704:  CLRF   21
1706:  MOVLW  5C
1708:  MOVWF  20
170A:  MOVLW  86
170C:  MOVWF  1F
.................... if(leitura >= 55545  && leitura <= 56312) 
170E:  MOVF   3B,W
1710:  SUBLW  D7
1712:  BC    1738
1714:  XORLW  FF
1716:  BNZ   171E
1718:  MOVF   3A,W
171A:  SUBLW  F8
171C:  BC    1738
171E:  MOVF   3B,W
1720:  SUBLW  DB
1722:  BNC   1738
1724:  BNZ   172C
1726:  MOVF   3A,W
1728:  SUBLW  F8
172A:  BNC   1738
.................... {y=240;} 
172C:  CLRF   22
172E:  CLRF   21
1730:  MOVLW  70
1732:  MOVWF  20
1734:  MOVLW  86
1736:  MOVWF  1F
.................... if(leitura >= 56313  && leitura <= 57112) 
1738:  MOVF   3B,W
173A:  SUBLW  DA
173C:  BC    1762
173E:  XORLW  FF
1740:  BNZ   1748
1742:  MOVF   3A,W
1744:  SUBLW  F8
1746:  BC    1762
1748:  MOVF   3B,W
174A:  SUBLW  DF
174C:  BNC   1762
174E:  BNZ   1756
1750:  MOVF   3A,W
1752:  SUBLW  18
1754:  BNC   1762
.................... {y=270;} 
1756:  CLRF   22
1758:  CLRF   21
175A:  MOVLW  07
175C:  MOVWF  20
175E:  MOVLW  87
1760:  MOVWF  1F
.................... if(leitura >= 57113  && leitura <= 57784) 
1762:  MOVF   3B,W
1764:  SUBLW  DE
1766:  BC    178C
1768:  XORLW  FF
176A:  BNZ   1772
176C:  MOVF   3A,W
176E:  SUBLW  18
1770:  BC    178C
1772:  MOVF   3B,W
1774:  SUBLW  E1
1776:  BNC   178C
1778:  BNZ   1780
177A:  MOVF   3A,W
177C:  SUBLW  B8
177E:  BNC   178C
.................... {y=300;} 
1780:  CLRF   22
1782:  CLRF   21
1784:  MOVLW  16
1786:  MOVWF  20
1788:  MOVLW  87
178A:  MOVWF  1F
.................... if(leitura >= 57785  && leitura <= 58328) 
178C:  MOVF   3B,W
178E:  SUBLW  E0
1790:  BC    17B6
1792:  XORLW  FF
1794:  BNZ   179C
1796:  MOVF   3A,W
1798:  SUBLW  B8
179A:  BC    17B6
179C:  MOVF   3B,W
179E:  SUBLW  E3
17A0:  BNC   17B6
17A2:  BNZ   17AA
17A4:  MOVF   3A,W
17A6:  SUBLW  D8
17A8:  BNC   17B6
.................... {y=330;} 
17AA:  CLRF   22
17AC:  CLRF   21
17AE:  MOVLW  25
17B0:  MOVWF  20
17B2:  MOVLW  87
17B4:  MOVWF  1F
.................... if(leitura >= 58329  && leitura <= 58776) 
17B6:  MOVF   3B,W
17B8:  SUBLW  E2
17BA:  BC    17E0
17BC:  XORLW  FF
17BE:  BNZ   17C6
17C0:  MOVF   3A,W
17C2:  SUBLW  D8
17C4:  BC    17E0
17C6:  MOVF   3B,W
17C8:  SUBLW  E5
17CA:  BNC   17E0
17CC:  BNZ   17D4
17CE:  MOVF   3A,W
17D0:  SUBLW  98
17D2:  BNC   17E0
.................... {y=360;} 
17D4:  CLRF   22
17D6:  CLRF   21
17D8:  MOVLW  34
17DA:  MOVWF  20
17DC:  MOVLW  87
17DE:  MOVWF  1F
.................... if(leitura >= 58777  && leitura <= 59256) 
17E0:  MOVF   3B,W
17E2:  SUBLW  E4
17E4:  BC    180A
17E6:  XORLW  FF
17E8:  BNZ   17F0
17EA:  MOVF   3A,W
17EC:  SUBLW  98
17EE:  BC    180A
17F0:  MOVF   3B,W
17F2:  SUBLW  E7
17F4:  BNC   180A
17F6:  BNZ   17FE
17F8:  MOVF   3A,W
17FA:  SUBLW  78
17FC:  BNC   180A
.................... {y=390;} 
17FE:  CLRF   22
1800:  CLRF   21
1802:  MOVLW  43
1804:  MOVWF  20
1806:  MOVLW  87
1808:  MOVWF  1F
.................... if(leitura >= 59257  && leitura <= 59736) 
180A:  MOVF   3B,W
180C:  SUBLW  E6
180E:  BC    1834
1810:  XORLW  FF
1812:  BNZ   181A
1814:  MOVF   3A,W
1816:  SUBLW  78
1818:  BC    1834
181A:  MOVF   3B,W
181C:  SUBLW  E9
181E:  BNC   1834
1820:  BNZ   1828
1822:  MOVF   3A,W
1824:  SUBLW  58
1826:  BNC   1834
.................... {y=430;} 
1828:  CLRF   22
182A:  CLRF   21
182C:  MOVLW  57
182E:  MOVWF  20
1830:  MOVLW  87
1832:  MOVWF  1F
.................... if(leitura >= 59737  && leitura <= 60120) 
1834:  MOVF   3B,W
1836:  SUBLW  E8
1838:  BC    185E
183A:  XORLW  FF
183C:  BNZ   1844
183E:  MOVF   3A,W
1840:  SUBLW  58
1842:  BC    185E
1844:  MOVF   3B,W
1846:  SUBLW  EA
1848:  BNC   185E
184A:  BNZ   1852
184C:  MOVF   3A,W
184E:  SUBLW  D8
1850:  BNC   185E
.................... {y=470;} 
1852:  CLRF   22
1854:  CLRF   21
1856:  MOVLW  6B
1858:  MOVWF  20
185A:  MOVLW  87
185C:  MOVWF  1F
.................... if(leitura >= 60121  && leitura <= 60472) 
185E:  MOVF   3B,W
1860:  SUBLW  E9
1862:  BC    1888
1864:  XORLW  FF
1866:  BNZ   186E
1868:  MOVF   3A,W
186A:  SUBLW  D8
186C:  BC    1888
186E:  MOVF   3B,W
1870:  SUBLW  EC
1872:  BNC   1888
1874:  BNZ   187C
1876:  MOVF   3A,W
1878:  SUBLW  38
187A:  BNC   1888
.................... {y=510;} 
187C:  CLRF   22
187E:  CLRF   21
1880:  MOVLW  7F
1882:  MOVWF  20
1884:  MOVLW  87
1886:  MOVWF  1F
.................... if(leitura >= 60473  && leitura <= 60856) 
1888:  MOVF   3B,W
188A:  SUBLW  EB
188C:  BC    18B2
188E:  XORLW  FF
1890:  BNZ   1898
1892:  MOVF   3A,W
1894:  SUBLW  38
1896:  BC    18B2
1898:  MOVF   3B,W
189A:  SUBLW  ED
189C:  BNC   18B2
189E:  BNZ   18A6
18A0:  MOVF   3A,W
18A2:  SUBLW  B8
18A4:  BNC   18B2
.................... {y=560;} 
18A6:  CLRF   22
18A8:  CLRF   21
18AA:  MOVLW  0C
18AC:  MOVWF  20
18AE:  MOVLW  88
18B0:  MOVWF  1F
.................... if(leitura >= 60857  && leitura <= 61208) 
18B2:  MOVF   3B,W
18B4:  SUBLW  EC
18B6:  BC    18DC
18B8:  XORLW  FF
18BA:  BNZ   18C2
18BC:  MOVF   3A,W
18BE:  SUBLW  B8
18C0:  BC    18DC
18C2:  MOVF   3B,W
18C4:  SUBLW  EF
18C6:  BNC   18DC
18C8:  BNZ   18D0
18CA:  MOVF   3A,W
18CC:  SUBLW  18
18CE:  BNC   18DC
.................... {y=620;} 
18D0:  CLRF   22
18D2:  CLRF   21
18D4:  MOVLW  1B
18D6:  MOVWF  20
18D8:  MOVLW  88
18DA:  MOVWF  1F
.................... if(leitura >= 61209  && leitura <= 61528) 
18DC:  MOVF   3B,W
18DE:  SUBLW  EE
18E0:  BC    1906
18E2:  XORLW  FF
18E4:  BNZ   18EC
18E6:  MOVF   3A,W
18E8:  SUBLW  18
18EA:  BC    1906
18EC:  MOVF   3B,W
18EE:  SUBLW  F0
18F0:  BNC   1906
18F2:  BNZ   18FA
18F4:  MOVF   3A,W
18F6:  SUBLW  58
18F8:  BNC   1906
.................... {y=680;} 
18FA:  CLRF   22
18FC:  CLRF   21
18FE:  MOVLW  2A
1900:  MOVWF  20
1902:  MOVLW  88
1904:  MOVWF  1F
.................... if(leitura >= 61529  && leitura <= 61816) 
1906:  MOVF   3B,W
1908:  SUBLW  EF
190A:  BC    1932
190C:  XORLW  FF
190E:  BNZ   1916
1910:  MOVF   3A,W
1912:  SUBLW  58
1914:  BC    1932
1916:  MOVF   3B,W
1918:  SUBLW  F1
191A:  BNC   1932
191C:  BNZ   1924
191E:  MOVF   3A,W
1920:  SUBLW  78
1922:  BNC   1932
.................... {y=750;} 
1924:  CLRF   22
1926:  MOVLW  80
1928:  MOVWF  21
192A:  MOVLW  3B
192C:  MOVWF  20
192E:  MOVLW  88
1930:  MOVWF  1F
.................... if(leitura >= 61817 && leitura <= 62072) 
1932:  MOVF   3B,W
1934:  SUBLW  F0
1936:  BC    195C
1938:  XORLW  FF
193A:  BNZ   1942
193C:  MOVF   3A,W
193E:  SUBLW  78
1940:  BC    195C
1942:  MOVF   3B,W
1944:  SUBLW  F2
1946:  BNC   195C
1948:  BNZ   1950
194A:  MOVF   3A,W
194C:  SUBLW  78
194E:  BNC   195C
.................... {y=820;} 
1950:  CLRF   22
1952:  CLRF   21
1954:  MOVLW  4D
1956:  MOVWF  20
1958:  MOVLW  88
195A:  MOVWF  1F
.................... if(leitura >= 62073  && leitura <= 62300) 
195C:  MOVF   3B,W
195E:  SUBLW  F1
1960:  BC    1988
1962:  XORLW  FF
1964:  BNZ   196C
1966:  MOVF   3A,W
1968:  SUBLW  78
196A:  BC    1988
196C:  MOVF   3B,W
196E:  SUBLW  F3
1970:  BNC   1988
1972:  BNZ   197A
1974:  MOVF   3A,W
1976:  SUBLW  5C
1978:  BNC   1988
.................... {y=910;}} 
197A:  CLRF   22
197C:  MOVLW  80
197E:  MOVWF  21
1980:  MOVLW  63
1982:  MOVWF  20
1984:  MOVLW  88
1986:  MOVWF  1F
....................        
....................        
.................... if(kohm==1 && mohm==0){ 
1988:  DECFSZ 3D,W
198A:  GOTO   25A4
198E:  MOVF   3C,F
1990:  BTFSS  FD8.2
1992:  GOTO   25A4
....................  
.................... if(leitura >= 1500 && leitura <= 1700) 
1996:  MOVF   3B,W
1998:  SUBLW  04
199A:  BC    19BE
199C:  XORLW  FF
199E:  BNZ   19A6
19A0:  MOVF   3A,W
19A2:  SUBLW  DB
19A4:  BC    19BE
19A6:  MOVF   3B,W
19A8:  SUBLW  06
19AA:  BNC   19BE
19AC:  BNZ   19B4
19AE:  MOVF   3A,W
19B0:  SUBLW  A4
19B2:  BNC   19BE
.................... {y=1;} 
19B4:  CLRF   22
19B6:  CLRF   21
19B8:  CLRF   20
19BA:  MOVLW  7F
19BC:  MOVWF  1F
.................... if(leitura >= 1701 && leitura <= 1856) 
19BE:  MOVF   3B,W
19C0:  SUBLW  05
19C2:  BC    19EC
19C4:  XORLW  FF
19C6:  BNZ   19CE
19C8:  MOVF   3A,W
19CA:  SUBLW  A4
19CC:  BC    19EC
19CE:  MOVF   3B,W
19D0:  SUBLW  07
19D2:  BNC   19EC
19D4:  BNZ   19DC
19D6:  MOVF   3A,W
19D8:  SUBLW  40
19DA:  BNC   19EC
.................... {y=1.1;} 
19DC:  MOVLW  CD
19DE:  MOVWF  22
19E0:  MOVLW  CC
19E2:  MOVWF  21
19E4:  MOVLW  0C
19E6:  MOVWF  20
19E8:  MOVLW  7F
19EA:  MOVWF  1F
.................... if(leitura >= 1857 && leitura <= 1984)  
19EC:  MOVF   3B,W
19EE:  SUBLW  06
19F0:  BC    1A1A
19F2:  XORLW  FF
19F4:  BNZ   19FC
19F6:  MOVF   3A,W
19F8:  SUBLW  40
19FA:  BC    1A1A
19FC:  MOVF   3B,W
19FE:  SUBLW  07
1A00:  BNC   1A1A
1A02:  BNZ   1A0A
1A04:  MOVF   3A,W
1A06:  SUBLW  C0
1A08:  BNC   1A1A
.................... {y=1.2;} 
1A0A:  MOVLW  9A
1A0C:  MOVWF  22
1A0E:  MOVLW  99
1A10:  MOVWF  21
1A12:  MOVLW  19
1A14:  MOVWF  20
1A16:  MOVLW  7F
1A18:  MOVWF  1F
.................... if(leitura >= 1985 && leitura <= 2240) 
1A1A:  MOVF   3B,W
1A1C:  SUBLW  06
1A1E:  BC    1A46
1A20:  XORLW  FF
1A22:  BNZ   1A2A
1A24:  MOVF   3A,W
1A26:  SUBLW  C0
1A28:  BC    1A46
1A2A:  MOVF   3B,W
1A2C:  SUBLW  08
1A2E:  BNC   1A46
1A30:  BNZ   1A38
1A32:  MOVF   3A,W
1A34:  SUBLW  C0
1A36:  BNC   1A46
.................... {y=1.3;} 
1A38:  MOVLW  66
1A3A:  MOVWF  22
1A3C:  MOVWF  21
1A3E:  MOVLW  26
1A40:  MOVWF  20
1A42:  MOVLW  7F
1A44:  MOVWF  1F
.................... if(leitura >= 2241 && leitura <= 2496) 
1A46:  MOVF   3B,W
1A48:  SUBLW  07
1A4A:  BC    1A70
1A4C:  XORLW  FF
1A4E:  BNZ   1A56
1A50:  MOVF   3A,W
1A52:  SUBLW  C0
1A54:  BC    1A70
1A56:  MOVF   3B,W
1A58:  SUBLW  09
1A5A:  BNC   1A70
1A5C:  BNZ   1A64
1A5E:  MOVF   3A,W
1A60:  SUBLW  C0
1A62:  BNC   1A70
.................... {y=1.5;} 
1A64:  CLRF   22
1A66:  CLRF   21
1A68:  MOVLW  40
1A6A:  MOVWF  20
1A6C:  MOVLW  7F
1A6E:  MOVWF  1F
.................... if(leitura >= 2497 && leitura <= 2720) 
1A70:  MOVF   3B,W
1A72:  SUBLW  08
1A74:  BC    1A9E
1A76:  XORLW  FF
1A78:  BNZ   1A80
1A7A:  MOVF   3A,W
1A7C:  SUBLW  C0
1A7E:  BC    1A9E
1A80:  MOVF   3B,W
1A82:  SUBLW  0A
1A84:  BNC   1A9E
1A86:  BNZ   1A8E
1A88:  MOVF   3A,W
1A8A:  SUBLW  A0
1A8C:  BNC   1A9E
.................... {y=1.6;} 
1A8E:  MOVLW  CD
1A90:  MOVWF  22
1A92:  MOVLW  CC
1A94:  MOVWF  21
1A96:  MOVLW  4C
1A98:  MOVWF  20
1A9A:  MOVLW  7F
1A9C:  MOVWF  1F
.................... if(leitura >= 2721 && leitura <= 3040) 
1A9E:  MOVF   3B,W
1AA0:  SUBLW  09
1AA2:  BC    1AC8
1AA4:  XORLW  FF
1AA6:  BNZ   1AAE
1AA8:  MOVF   3A,W
1AAA:  SUBLW  A0
1AAC:  BC    1AC8
1AAE:  MOVF   3B,W
1AB0:  SUBLW  0B
1AB2:  BNC   1AC8
1AB4:  BNZ   1ABC
1AB6:  MOVF   3A,W
1AB8:  SUBLW  E0
1ABA:  BNC   1AC8
.................... {y=1.8;} 
1ABC:  MOVLW  66
1ABE:  MOVWF  22
1AC0:  MOVWF  21
1AC2:  MOVWF  20
1AC4:  MOVLW  7F
1AC6:  MOVWF  1F
.................... if(leitura >= 3041 && leitura <= 3360) 
1AC8:  MOVF   3B,W
1ACA:  SUBLW  0A
1ACC:  BC    1AF0
1ACE:  XORLW  FF
1AD0:  BNZ   1AD8
1AD2:  MOVF   3A,W
1AD4:  SUBLW  E0
1AD6:  BC    1AF0
1AD8:  MOVF   3B,W
1ADA:  SUBLW  0D
1ADC:  BNC   1AF0
1ADE:  BNZ   1AE6
1AE0:  MOVF   3A,W
1AE2:  SUBLW  20
1AE4:  BNC   1AF0
.................... {y=2;} 
1AE6:  CLRF   22
1AE8:  CLRF   21
1AEA:  CLRF   20
1AEC:  MOVLW  80
1AEE:  MOVWF  1F
.................... if(leitura >= 3361 && leitura <= 3648) 
1AF0:  MOVF   3B,W
1AF2:  SUBLW  0C
1AF4:  BC    1B1E
1AF6:  XORLW  FF
1AF8:  BNZ   1B00
1AFA:  MOVF   3A,W
1AFC:  SUBLW  20
1AFE:  BC    1B1E
1B00:  MOVF   3B,W
1B02:  SUBLW  0E
1B04:  BNC   1B1E
1B06:  BNZ   1B0E
1B08:  MOVF   3A,W
1B0A:  SUBLW  40
1B0C:  BNC   1B1E
.................... {y=2.2;} 
1B0E:  MOVLW  CD
1B10:  MOVWF  22
1B12:  MOVLW  CC
1B14:  MOVWF  21
1B16:  MOVLW  0C
1B18:  MOVWF  20
1B1A:  MOVLW  80
1B1C:  MOVWF  1F
.................... if(leitura >= 3649 && leitura <= 4000) 
1B1E:  MOVF   3B,W
1B20:  SUBLW  0D
1B22:  BC    1B4C
1B24:  XORLW  FF
1B26:  BNZ   1B2E
1B28:  MOVF   3A,W
1B2A:  SUBLW  40
1B2C:  BC    1B4C
1B2E:  MOVF   3B,W
1B30:  SUBLW  0F
1B32:  BNC   1B4C
1B34:  BNZ   1B3C
1B36:  MOVF   3A,W
1B38:  SUBLW  A0
1B3A:  BNC   1B4C
.................... {y=2.4;} 
1B3C:  MOVLW  9A
1B3E:  MOVWF  22
1B40:  MOVLW  99
1B42:  MOVWF  21
1B44:  MOVLW  19
1B46:  MOVWF  20
1B48:  MOVLW  80
1B4A:  MOVWF  1F
.................... if(leitura >= 4001 && leitura <= 4448) 
1B4C:  MOVF   3B,W
1B4E:  SUBLW  0E
1B50:  BC    1B7A
1B52:  XORLW  FF
1B54:  BNZ   1B5C
1B56:  MOVF   3A,W
1B58:  SUBLW  A0
1B5A:  BC    1B7A
1B5C:  MOVF   3B,W
1B5E:  SUBLW  11
1B60:  BNC   1B7A
1B62:  BNZ   1B6A
1B64:  MOVF   3A,W
1B66:  SUBLW  60
1B68:  BNC   1B7A
.................... {y=2.7;} 
1B6A:  MOVLW  CD
1B6C:  MOVWF  22
1B6E:  MOVLW  CC
1B70:  MOVWF  21
1B72:  MOVLW  2C
1B74:  MOVWF  20
1B76:  MOVLW  80
1B78:  MOVWF  1F
.................... if(leitura >= 4449 && leitura <= 4896) 
1B7A:  MOVF   3B,W
1B7C:  SUBLW  10
1B7E:  BC    1BA4
1B80:  XORLW  FF
1B82:  BNZ   1B8A
1B84:  MOVF   3A,W
1B86:  SUBLW  60
1B88:  BC    1BA4
1B8A:  MOVF   3B,W
1B8C:  SUBLW  13
1B8E:  BNC   1BA4
1B90:  BNZ   1B98
1B92:  MOVF   3A,W
1B94:  SUBLW  20
1B96:  BNC   1BA4
.................... {y=3;} 
1B98:  CLRF   22
1B9A:  CLRF   21
1B9C:  MOVLW  40
1B9E:  MOVWF  20
1BA0:  MOVLW  80
1BA2:  MOVWF  1F
.................... if(leitura >= 4897 && leitura <= 5344) 
1BA4:  MOVF   3B,W
1BA6:  SUBLW  12
1BA8:  BC    1BD0
1BAA:  XORLW  FF
1BAC:  BNZ   1BB4
1BAE:  MOVF   3A,W
1BB0:  SUBLW  20
1BB2:  BC    1BD0
1BB4:  MOVF   3B,W
1BB6:  SUBLW  14
1BB8:  BNC   1BD0
1BBA:  BNZ   1BC2
1BBC:  MOVF   3A,W
1BBE:  SUBLW  E0
1BC0:  BNC   1BD0
.................... {y=3.3;} 
1BC2:  MOVLW  33
1BC4:  MOVWF  22
1BC6:  MOVWF  21
1BC8:  MOVLW  53
1BCA:  MOVWF  20
1BCC:  MOVLW  80
1BCE:  MOVWF  1F
.................... if(leitura >= 5345 && leitura <= 5792) 
1BD0:  MOVF   3B,W
1BD2:  SUBLW  13
1BD4:  BC    1BFA
1BD6:  XORLW  FF
1BD8:  BNZ   1BE0
1BDA:  MOVF   3A,W
1BDC:  SUBLW  E0
1BDE:  BC    1BFA
1BE0:  MOVF   3B,W
1BE2:  SUBLW  16
1BE4:  BNC   1BFA
1BE6:  BNZ   1BEE
1BE8:  MOVF   3A,W
1BEA:  SUBLW  A0
1BEC:  BNC   1BFA
.................... {y=3.6;} 
1BEE:  MOVLW  66
1BF0:  MOVWF  22
1BF2:  MOVWF  21
1BF4:  MOVWF  20
1BF6:  MOVLW  80
1BF8:  MOVWF  1F
.................... if(leitura >= 5793 && leitura <= 6272) 
1BFA:  MOVF   3B,W
1BFC:  SUBLW  15
1BFE:  BC    1C28
1C00:  XORLW  FF
1C02:  BNZ   1C0A
1C04:  MOVF   3A,W
1C06:  SUBLW  A0
1C08:  BC    1C28
1C0A:  MOVF   3B,W
1C0C:  SUBLW  18
1C0E:  BNC   1C28
1C10:  BNZ   1C18
1C12:  MOVF   3A,W
1C14:  SUBLW  80
1C16:  BNC   1C28
.................... {y=3.9;} 
1C18:  MOVLW  9A
1C1A:  MOVWF  22
1C1C:  MOVLW  99
1C1E:  MOVWF  21
1C20:  MOVLW  79
1C22:  MOVWF  20
1C24:  MOVLW  80
1C26:  MOVWF  1F
.................... if(leitura >= 6273 && leitura <= 6816) 
1C28:  MOVF   3B,W
1C2A:  SUBLW  17
1C2C:  BC    1C56
1C2E:  XORLW  FF
1C30:  BNZ   1C38
1C32:  MOVF   3A,W
1C34:  SUBLW  80
1C36:  BC    1C56
1C38:  MOVF   3B,W
1C3A:  SUBLW  1A
1C3C:  BNC   1C56
1C3E:  BNZ   1C46
1C40:  MOVF   3A,W
1C42:  SUBLW  A0
1C44:  BNC   1C56
.................... {y=4.3;} 
1C46:  MOVLW  9A
1C48:  MOVWF  22
1C4A:  MOVLW  99
1C4C:  MOVWF  21
1C4E:  MOVLW  09
1C50:  MOVWF  20
1C52:  MOVLW  81
1C54:  MOVWF  1F
.................... if(leitura >= 6817 && leitura <= 7410) 
1C56:  MOVF   3B,W
1C58:  SUBLW  19
1C5A:  BC    1C8E
1C5C:  XORLW  FF
1C5E:  BNZ   1C66
1C60:  MOVF   3A,W
1C62:  SUBLW  A0
1C64:  BC    1C8E
1C66:  MOVF   3B,W
1C68:  SUBLW  1C
1C6A:  BNC   1C8E
1C6C:  BNZ   1C74
1C6E:  MOVF   3A,W
1C70:  SUBLW  F2
1C72:  BNC   1C8E
.................... {y=4.7; if(kohm==1 && mohm==0){c=89;}} 
1C74:  MOVLW  66
1C76:  MOVWF  22
1C78:  MOVWF  21
1C7A:  MOVLW  16
1C7C:  MOVWF  20
1C7E:  MOVLW  81
1C80:  MOVWF  1F
1C82:  DECFSZ 3D,W
1C84:  BRA    1C8E
1C86:  MOVF   3C,F
1C88:  BNZ   1C8E
1C8A:  MOVLW  59
1C8C:  MOVWF  34
....................  
.................... if(leitura >= 7411 && leitura <= 7986) 
1C8E:  MOVF   3B,W
1C90:  SUBLW  1B
1C92:  BC    1CBA
1C94:  XORLW  FF
1C96:  BNZ   1C9E
1C98:  MOVF   3A,W
1C9A:  SUBLW  F2
1C9C:  BC    1CBA
1C9E:  MOVF   3B,W
1CA0:  SUBLW  1F
1CA2:  BNC   1CBA
1CA4:  BNZ   1CAC
1CA6:  MOVF   3A,W
1CA8:  SUBLW  32
1CAA:  BNC   1CBA
.................... {y=5.1;} 
1CAC:  MOVLW  33
1CAE:  MOVWF  22
1CB0:  MOVWF  21
1CB2:  MOVLW  23
1CB4:  MOVWF  20
1CB6:  MOVLW  81
1CB8:  MOVWF  1F
.................... if(leitura >= 7987 && leitura <= 8672) 
1CBA:  MOVF   3B,W
1CBC:  SUBLW  1E
1CBE:  BC    1CE4
1CC0:  XORLW  FF
1CC2:  BNZ   1CCA
1CC4:  MOVF   3A,W
1CC6:  SUBLW  32
1CC8:  BC    1CE4
1CCA:  MOVF   3B,W
1CCC:  SUBLW  21
1CCE:  BNC   1CE4
1CD0:  BNZ   1CD8
1CD2:  MOVF   3A,W
1CD4:  SUBLW  E0
1CD6:  BNC   1CE4
.................... {y=5.6;} 
1CD8:  MOVLW  33
1CDA:  MOVWF  22
1CDC:  MOVWF  21
1CDE:  MOVWF  20
1CE0:  MOVLW  81
1CE2:  MOVWF  1F
.................... if(leitura >= 8673 && leitura <= 9440) 
1CE4:  MOVF   3B,W
1CE6:  SUBLW  20
1CE8:  BC    1D10
1CEA:  XORLW  FF
1CEC:  BNZ   1CF4
1CEE:  MOVF   3A,W
1CF0:  SUBLW  E0
1CF2:  BC    1D10
1CF4:  MOVF   3B,W
1CF6:  SUBLW  24
1CF8:  BNC   1D10
1CFA:  BNZ   1D02
1CFC:  MOVF   3A,W
1CFE:  SUBLW  E0
1D00:  BNC   1D10
.................... {y=6.2;} 
1D02:  MOVLW  66
1D04:  MOVWF  22
1D06:  MOVWF  21
1D08:  MOVLW  46
1D0A:  MOVWF  20
1D0C:  MOVLW  81
1D0E:  MOVWF  1F
.................... if(leitura >= 9441 && leitura <= 10240) 
1D10:  MOVF   3B,W
1D12:  SUBLW  23
1D14:  BC    1D3E
1D16:  XORLW  FF
1D18:  BNZ   1D20
1D1A:  MOVF   3A,W
1D1C:  SUBLW  E0
1D1E:  BC    1D3E
1D20:  MOVF   3B,W
1D22:  SUBLW  28
1D24:  BNC   1D3E
1D26:  BNZ   1D2E
1D28:  MOVF   3A,W
1D2A:  SUBLW  00
1D2C:  BNC   1D3E
.................... {y=6.8;} 
1D2E:  MOVLW  9A
1D30:  MOVWF  22
1D32:  MOVLW  99
1D34:  MOVWF  21
1D36:  MOVLW  59
1D38:  MOVWF  20
1D3A:  MOVLW  81
1D3C:  MOVWF  1F
.................... if(leitura >= 10241 && leitura <= 11072) 
1D3E:  MOVF   3B,W
1D40:  SUBLW  27
1D42:  BC    1D68
1D44:  XORLW  FF
1D46:  BNZ   1D4E
1D48:  MOVF   3A,W
1D4A:  SUBLW  00
1D4C:  BC    1D68
1D4E:  MOVF   3B,W
1D50:  SUBLW  2B
1D52:  BNC   1D68
1D54:  BNZ   1D5C
1D56:  MOVF   3A,W
1D58:  SUBLW  40
1D5A:  BNC   1D68
.................... {y=7.5;}  
1D5C:  CLRF   22
1D5E:  CLRF   21
1D60:  MOVLW  70
1D62:  MOVWF  20
1D64:  MOVLW  81
1D66:  MOVWF  1F
.................... if(leitura >= 11073 && leitura <= 12000) 
1D68:  MOVF   3B,W
1D6A:  SUBLW  2A
1D6C:  BC    1D94
1D6E:  XORLW  FF
1D70:  BNZ   1D78
1D72:  MOVF   3A,W
1D74:  SUBLW  40
1D76:  BC    1D94
1D78:  MOVF   3B,W
1D7A:  SUBLW  2E
1D7C:  BNC   1D94
1D7E:  BNZ   1D86
1D80:  MOVF   3A,W
1D82:  SUBLW  E0
1D84:  BNC   1D94
.................... {y=8.2;} 
1D86:  MOVLW  33
1D88:  MOVWF  22
1D8A:  MOVWF  21
1D8C:  MOVLW  03
1D8E:  MOVWF  20
1D90:  MOVLW  82
1D92:  MOVWF  1F
.................... if(leitura >= 12001 && leitura <= 13024) 
1D94:  MOVF   3B,W
1D96:  SUBLW  2D
1D98:  BC    1DC2
1D9A:  XORLW  FF
1D9C:  BNZ   1DA4
1D9E:  MOVF   3A,W
1DA0:  SUBLW  E0
1DA2:  BC    1DC2
1DA4:  MOVF   3B,W
1DA6:  SUBLW  32
1DA8:  BNC   1DC2
1DAA:  BNZ   1DB2
1DAC:  MOVF   3A,W
1DAE:  SUBLW  E0
1DB0:  BNC   1DC2
.................... {y=9.1;} 
1DB2:  MOVLW  9A
1DB4:  MOVWF  22
1DB6:  MOVLW  99
1DB8:  MOVWF  21
1DBA:  MOVLW  11
1DBC:  MOVWF  20
1DBE:  MOVLW  82
1DC0:  MOVWF  1F
.................... if(leitura >= 13025 && leitura <= 14048) 
1DC2:  MOVF   3B,W
1DC4:  SUBLW  31
1DC6:  BC    1DEC
1DC8:  XORLW  FF
1DCA:  BNZ   1DD2
1DCC:  MOVF   3A,W
1DCE:  SUBLW  E0
1DD0:  BC    1DEC
1DD2:  MOVF   3B,W
1DD4:  SUBLW  36
1DD6:  BNC   1DEC
1DD8:  BNZ   1DE0
1DDA:  MOVF   3A,W
1DDC:  SUBLW  E0
1DDE:  BNC   1DEC
.................... {y=10;} 
1DE0:  CLRF   22
1DE2:  CLRF   21
1DE4:  MOVLW  20
1DE6:  MOVWF  20
1DE8:  MOVLW  82
1DEA:  MOVWF  1F
.................... if(leitura >= 14049 && leitura <= 15104) 
1DEC:  MOVF   3B,W
1DEE:  SUBLW  35
1DF0:  BC    1E16
1DF2:  XORLW  FF
1DF4:  BNZ   1DFC
1DF6:  MOVF   3A,W
1DF8:  SUBLW  E0
1DFA:  BC    1E16
1DFC:  MOVF   3B,W
1DFE:  SUBLW  3B
1E00:  BNC   1E16
1E02:  BNZ   1E0A
1E04:  MOVF   3A,W
1E06:  SUBLW  00
1E08:  BNC   1E16
.................... {y=11;} 
1E0A:  CLRF   22
1E0C:  CLRF   21
1E0E:  MOVLW  30
1E10:  MOVWF  20
1E12:  MOVLW  82
1E14:  MOVWF  1F
.................... if(leitura >= 15105 && leitura <= 16096) 
1E16:  MOVF   3B,W
1E18:  SUBLW  3A
1E1A:  BC    1E40
1E1C:  XORLW  FF
1E1E:  BNZ   1E26
1E20:  MOVF   3A,W
1E22:  SUBLW  00
1E24:  BC    1E40
1E26:  MOVF   3B,W
1E28:  SUBLW  3E
1E2A:  BNC   1E40
1E2C:  BNZ   1E34
1E2E:  MOVF   3A,W
1E30:  SUBLW  E0
1E32:  BNC   1E40
.................... {y=12;} 
1E34:  CLRF   22
1E36:  CLRF   21
1E38:  MOVLW  40
1E3A:  MOVWF  20
1E3C:  MOVLW  82
1E3E:  MOVWF  1F
.................... if(leitura >= 16097 && leitura <= 17472) 
1E40:  MOVF   3B,W
1E42:  SUBLW  3D
1E44:  BC    1E6A
1E46:  XORLW  FF
1E48:  BNZ   1E50
1E4A:  MOVF   3A,W
1E4C:  SUBLW  E0
1E4E:  BC    1E6A
1E50:  MOVF   3B,W
1E52:  SUBLW  44
1E54:  BNC   1E6A
1E56:  BNZ   1E5E
1E58:  MOVF   3A,W
1E5A:  SUBLW  40
1E5C:  BNC   1E6A
.................... {y=13;} 
1E5E:  CLRF   22
1E60:  CLRF   21
1E62:  MOVLW  50
1E64:  MOVWF  20
1E66:  MOVLW  82
1E68:  MOVWF  1F
.................... if(leitura >= 17473 && leitura <= 18816) 
1E6A:  MOVF   3B,W
1E6C:  SUBLW  43
1E6E:  BC    1E94
1E70:  XORLW  FF
1E72:  BNZ   1E7A
1E74:  MOVF   3A,W
1E76:  SUBLW  40
1E78:  BC    1E94
1E7A:  MOVF   3B,W
1E7C:  SUBLW  49
1E7E:  BNC   1E94
1E80:  BNZ   1E88
1E82:  MOVF   3A,W
1E84:  SUBLW  80
1E86:  BNC   1E94
.................... {y=15;} 
1E88:  CLRF   22
1E8A:  CLRF   21
1E8C:  MOVLW  70
1E8E:  MOVWF  20
1E90:  MOVLW  82
1E92:  MOVWF  1F
.................... if(leitura >= 18817 && leitura <= 20064) 
1E94:  MOVF   3B,W
1E96:  SUBLW  48
1E98:  BC    1EBC
1E9A:  XORLW  FF
1E9C:  BNZ   1EA4
1E9E:  MOVF   3A,W
1EA0:  SUBLW  80
1EA2:  BC    1EBC
1EA4:  MOVF   3B,W
1EA6:  SUBLW  4E
1EA8:  BNC   1EBC
1EAA:  BNZ   1EB2
1EAC:  MOVF   3A,W
1EAE:  SUBLW  60
1EB0:  BNC   1EBC
.................... {y=16;} 
1EB2:  CLRF   22
1EB4:  CLRF   21
1EB6:  CLRF   20
1EB8:  MOVLW  83
1EBA:  MOVWF  1F
.................... if(leitura >= 20065 && leitura <= 21664) 
1EBC:  MOVF   3B,W
1EBE:  SUBLW  4D
1EC0:  BC    1EE6
1EC2:  XORLW  FF
1EC4:  BNZ   1ECC
1EC6:  MOVF   3A,W
1EC8:  SUBLW  60
1ECA:  BC    1EE6
1ECC:  MOVF   3B,W
1ECE:  SUBLW  54
1ED0:  BNC   1EE6
1ED2:  BNZ   1EDA
1ED4:  MOVF   3A,W
1ED6:  SUBLW  A0
1ED8:  BNC   1EE6
.................... {y=18;} 
1EDA:  CLRF   22
1EDC:  CLRF   21
1EDE:  MOVLW  10
1EE0:  MOVWF  20
1EE2:  MOVLW  83
1EE4:  MOVWF  1F
.................... if(leitura >= 21665 && leitura <= 23136) 
1EE6:  MOVF   3B,W
1EE8:  SUBLW  53
1EEA:  BC    1F10
1EEC:  XORLW  FF
1EEE:  BNZ   1EF6
1EF0:  MOVF   3A,W
1EF2:  SUBLW  A0
1EF4:  BC    1F10
1EF6:  MOVF   3B,W
1EF8:  SUBLW  5A
1EFA:  BNC   1F10
1EFC:  BNZ   1F04
1EFE:  MOVF   3A,W
1F00:  SUBLW  60
1F02:  BNC   1F10
.................... {y=20;} 
1F04:  CLRF   22
1F06:  CLRF   21
1F08:  MOVLW  20
1F0A:  MOVWF  20
1F0C:  MOVLW  83
1F0E:  MOVWF  1F
.................... if(leitura >= 23137 && leitura <= 24480) 
1F10:  MOVF   3B,W
1F12:  SUBLW  59
1F14:  BC    1F3A
1F16:  XORLW  FF
1F18:  BNZ   1F20
1F1A:  MOVF   3A,W
1F1C:  SUBLW  60
1F1E:  BC    1F3A
1F20:  MOVF   3B,W
1F22:  SUBLW  5F
1F24:  BNC   1F3A
1F26:  BNZ   1F2E
1F28:  MOVF   3A,W
1F2A:  SUBLW  A0
1F2C:  BNC   1F3A
.................... {y=22;} 
1F2E:  CLRF   22
1F30:  CLRF   21
1F32:  MOVLW  30
1F34:  MOVWF  20
1F36:  MOVLW  83
1F38:  MOVWF  1F
.................... if(leitura >= 24481 && leitura <= 26048) 
1F3A:  MOVF   3B,W
1F3C:  SUBLW  5E
1F3E:  BC    1F64
1F40:  XORLW  FF
1F42:  BNZ   1F4A
1F44:  MOVF   3A,W
1F46:  SUBLW  A0
1F48:  BC    1F64
1F4A:  MOVF   3B,W
1F4C:  SUBLW  65
1F4E:  BNC   1F64
1F50:  BNZ   1F58
1F52:  MOVF   3A,W
1F54:  SUBLW  C0
1F56:  BNC   1F64
.................... {y=24;} 
1F58:  CLRF   22
1F5A:  CLRF   21
1F5C:  MOVLW  40
1F5E:  MOVWF  20
1F60:  MOVLW  83
1F62:  MOVWF  1F
.................... if(leitura >= 26049 && leitura <= 27808) 
1F64:  MOVF   3B,W
1F66:  SUBLW  64
1F68:  BC    1F8E
1F6A:  XORLW  FF
1F6C:  BNZ   1F74
1F6E:  MOVF   3A,W
1F70:  SUBLW  C0
1F72:  BC    1F8E
1F74:  MOVF   3B,W
1F76:  SUBLW  6C
1F78:  BNC   1F8E
1F7A:  BNZ   1F82
1F7C:  MOVF   3A,W
1F7E:  SUBLW  A0
1F80:  BNC   1F8E
.................... {y=27;} 
1F82:  CLRF   22
1F84:  CLRF   21
1F86:  MOVLW  58
1F88:  MOVWF  20
1F8A:  MOVLW  83
1F8C:  MOVWF  1F
.................... if(leitura >= 27809 && leitura <= 29440) 
1F8E:  MOVF   3B,W
1F90:  SUBLW  6B
1F92:  BC    1FB8
1F94:  XORLW  FF
1F96:  BNZ   1F9E
1F98:  MOVF   3A,W
1F9A:  SUBLW  A0
1F9C:  BC    1FB8
1F9E:  MOVF   3B,W
1FA0:  SUBLW  73
1FA2:  BNC   1FB8
1FA4:  BNZ   1FAC
1FA6:  MOVF   3A,W
1FA8:  SUBLW  00
1FAA:  BNC   1FB8
.................... {y=30;} 
1FAC:  CLRF   22
1FAE:  CLRF   21
1FB0:  MOVLW  70
1FB2:  MOVWF  20
1FB4:  MOVLW  83
1FB6:  MOVWF  1F
.................... if(leitura >= 29441 && leitura <= 30913) 
1FB8:  MOVF   3B,W
1FBA:  SUBLW  72
1FBC:  BC    1FE2
1FBE:  XORLW  FF
1FC0:  BNZ   1FC8
1FC2:  MOVF   3A,W
1FC4:  SUBLW  00
1FC6:  BC    1FE2
1FC8:  MOVF   3B,W
1FCA:  SUBLW  78
1FCC:  BNC   1FE2
1FCE:  BNZ   1FD6
1FD0:  MOVF   3A,W
1FD2:  SUBLW  C1
1FD4:  BNC   1FE2
.................... {y=33;} 
1FD6:  CLRF   22
1FD8:  CLRF   21
1FDA:  MOVLW  04
1FDC:  MOVWF  20
1FDE:  MOVLW  84
1FE0:  MOVWF  1F
.................... if(leitura >= 30914 && leitura <= 33288) 
1FE2:  MOVF   3B,W
1FE4:  SUBLW  77
1FE6:  BC    200C
1FE8:  XORLW  FF
1FEA:  BNZ   1FF2
1FEC:  MOVF   3A,W
1FEE:  SUBLW  C1
1FF0:  BC    200C
1FF2:  MOVF   3B,W
1FF4:  SUBLW  82
1FF6:  BNC   200C
1FF8:  BNZ   2000
1FFA:  MOVF   3A,W
1FFC:  SUBLW  08
1FFE:  BNC   200C
.................... {y=36;} 
2000:  CLRF   22
2002:  CLRF   21
2004:  MOVLW  10
2006:  MOVWF  20
2008:  MOVLW  84
200A:  MOVWF  1F
.................... if(leitura >= 33289 && leitura <= 33728) 
200C:  MOVF   3B,W
200E:  SUBLW  81
2010:  BC    2036
2012:  XORLW  FF
2014:  BNZ   201C
2016:  MOVF   3A,W
2018:  SUBLW  08
201A:  BC    2036
201C:  MOVF   3B,W
201E:  SUBLW  83
2020:  BNC   2036
2022:  BNZ   202A
2024:  MOVF   3A,W
2026:  SUBLW  C0
2028:  BNC   2036
.................... {y=39;} 
202A:  CLRF   22
202C:  CLRF   21
202E:  MOVLW  1C
2030:  MOVWF  20
2032:  MOVLW  84
2034:  MOVWF  1F
.................... if(leitura >= 33729 && leitura <= 35232) 
2036:  MOVF   3B,W
2038:  SUBLW  82
203A:  BC    2060
203C:  XORLW  FF
203E:  BNZ   2046
2040:  MOVF   3A,W
2042:  SUBLW  C0
2044:  BC    2060
2046:  MOVF   3B,W
2048:  SUBLW  89
204A:  BNC   2060
204C:  BNZ   2054
204E:  MOVF   3A,W
2050:  SUBLW  A0
2052:  BNC   2060
.................... {y=43;} 
2054:  CLRF   22
2056:  CLRF   21
2058:  MOVLW  2C
205A:  MOVWF  20
205C:  MOVLW  84
205E:  MOVWF  1F
.................... if(leitura >= 35233 && leitura <= 36608) 
2060:  MOVF   3B,W
2062:  SUBLW  88
2064:  BC    208A
2066:  XORLW  FF
2068:  BNZ   2070
206A:  MOVF   3A,W
206C:  SUBLW  A0
206E:  BC    208A
2070:  MOVF   3B,W
2072:  SUBLW  8F
2074:  BNC   208A
2076:  BNZ   207E
2078:  MOVF   3A,W
207A:  SUBLW  00
207C:  BNC   208A
.................... {y=47;} 
207E:  CLRF   22
2080:  CLRF   21
2082:  MOVLW  3C
2084:  MOVWF  20
2086:  MOVLW  84
2088:  MOVWF  1F
.................... if(leitura >= 36609 && leitura <= 37984) 
208A:  MOVF   3B,W
208C:  SUBLW  8E
208E:  BC    20B4
2090:  XORLW  FF
2092:  BNZ   209A
2094:  MOVF   3A,W
2096:  SUBLW  00
2098:  BC    20B4
209A:  MOVF   3B,W
209C:  SUBLW  94
209E:  BNC   20B4
20A0:  BNZ   20A8
20A2:  MOVF   3A,W
20A4:  SUBLW  60
20A6:  BNC   20B4
.................... {y=51;} 
20A8:  CLRF   22
20AA:  CLRF   21
20AC:  MOVLW  4C
20AE:  MOVWF  20
20B0:  MOVLW  84
20B2:  MOVWF  1F
.................... if(leitura >= 37985 && leitura <= 39552) 
20B4:  MOVF   3B,W
20B6:  SUBLW  93
20B8:  BC    20DE
20BA:  XORLW  FF
20BC:  BNZ   20C4
20BE:  MOVF   3A,W
20C0:  SUBLW  60
20C2:  BC    20DE
20C4:  MOVF   3B,W
20C6:  SUBLW  9A
20C8:  BNC   20DE
20CA:  BNZ   20D2
20CC:  MOVF   3A,W
20CE:  SUBLW  80
20D0:  BNC   20DE
.................... {y=56;} 
20D2:  CLRF   22
20D4:  CLRF   21
20D6:  MOVLW  60
20D8:  MOVWF  20
20DA:  MOVLW  84
20DC:  MOVWF  1F
.................... if(leitura >= 39553 && leitura <= 41056) 
20DE:  MOVF   3B,W
20E0:  SUBLW  99
20E2:  BC    2108
20E4:  XORLW  FF
20E6:  BNZ   20EE
20E8:  MOVF   3A,W
20EA:  SUBLW  80
20EC:  BC    2108
20EE:  MOVF   3B,W
20F0:  SUBLW  A0
20F2:  BNC   2108
20F4:  BNZ   20FC
20F6:  MOVF   3A,W
20F8:  SUBLW  60
20FA:  BNC   2108
.................... {y=62;} 
20FC:  CLRF   22
20FE:  CLRF   21
2100:  MOVLW  78
2102:  MOVWF  20
2104:  MOVLW  84
2106:  MOVWF  1F
.................... if(leitura >= 41067 && leitura <= 42464) 
2108:  MOVF   3B,W
210A:  SUBLW  9F
210C:  BC    2132
210E:  XORLW  FF
2110:  BNZ   2118
2112:  MOVF   3A,W
2114:  SUBLW  6A
2116:  BC    2132
2118:  MOVF   3B,W
211A:  SUBLW  A5
211C:  BNC   2132
211E:  BNZ   2126
2120:  MOVF   3A,W
2122:  SUBLW  E0
2124:  BNC   2132
.................... {y=68;} 
2126:  CLRF   22
2128:  CLRF   21
212A:  MOVLW  08
212C:  MOVWF  20
212E:  MOVLW  85
2130:  MOVWF  1F
.................... if(leitura >= 42465 && leitura <= 43808) 
2132:  MOVF   3B,W
2134:  SUBLW  A4
2136:  BC    215C
2138:  XORLW  FF
213A:  BNZ   2142
213C:  MOVF   3A,W
213E:  SUBLW  E0
2140:  BC    215C
2142:  MOVF   3B,W
2144:  SUBLW  AB
2146:  BNC   215C
2148:  BNZ   2150
214A:  MOVF   3A,W
214C:  SUBLW  20
214E:  BNC   215C
.................... {y=75;} 
2150:  CLRF   22
2152:  CLRF   21
2154:  MOVLW  16
2156:  MOVWF  20
2158:  MOVLW  85
215A:  MOVWF  1F
.................... if(leitura >= 43809 && leitura <= 45152) 
215C:  MOVF   3B,W
215E:  SUBLW  AA
2160:  BC    2186
2162:  XORLW  FF
2164:  BNZ   216C
2166:  MOVF   3A,W
2168:  SUBLW  20
216A:  BC    2186
216C:  MOVF   3B,W
216E:  SUBLW  B0
2170:  BNC   2186
2172:  BNZ   217A
2174:  MOVF   3A,W
2176:  SUBLW  60
2178:  BNC   2186
.................... {y=82;} 
217A:  CLRF   22
217C:  CLRF   21
217E:  MOVLW  24
2180:  MOVWF  20
2182:  MOVLW  85
2184:  MOVWF  1F
.................... if(leitura >= 45153 && leitura <= 46528) 
2186:  MOVF   3B,W
2188:  SUBLW  AF
218A:  BC    21B0
218C:  XORLW  FF
218E:  BNZ   2196
2190:  MOVF   3A,W
2192:  SUBLW  60
2194:  BC    21B0
2196:  MOVF   3B,W
2198:  SUBLW  B5
219A:  BNC   21B0
219C:  BNZ   21A4
219E:  MOVF   3A,W
21A0:  SUBLW  C0
21A2:  BNC   21B0
.................... {y=91;} 
21A4:  CLRF   22
21A6:  CLRF   21
21A8:  MOVLW  36
21AA:  MOVWF  20
21AC:  MOVLW  85
21AE:  MOVWF  1F
.................... if(leitura >= 46529 && leitura <= 47744) 
21B0:  MOVF   3B,W
21B2:  SUBLW  B4
21B4:  BC    21DA
21B6:  XORLW  FF
21B8:  BNZ   21C0
21BA:  MOVF   3A,W
21BC:  SUBLW  C0
21BE:  BC    21DA
21C0:  MOVF   3B,W
21C2:  SUBLW  BA
21C4:  BNC   21DA
21C6:  BNZ   21CE
21C8:  MOVF   3A,W
21CA:  SUBLW  80
21CC:  BNC   21DA
.................... {y=100;} 
21CE:  CLRF   22
21D0:  CLRF   21
21D2:  MOVLW  48
21D4:  MOVWF  20
21D6:  MOVLW  85
21D8:  MOVWF  1F
.................... if(leitura >= 47745 && leitura <= 48928) 
21DA:  MOVF   3B,W
21DC:  SUBLW  B9
21DE:  BC    2204
21E0:  XORLW  FF
21E2:  BNZ   21EA
21E4:  MOVF   3A,W
21E6:  SUBLW  80
21E8:  BC    2204
21EA:  MOVF   3B,W
21EC:  SUBLW  BF
21EE:  BNC   2204
21F0:  BNZ   21F8
21F2:  MOVF   3A,W
21F4:  SUBLW  20
21F6:  BNC   2204
.................... {y=110;} 
21F8:  CLRF   22
21FA:  CLRF   21
21FC:  MOVLW  5C
21FE:  MOVWF  20
2200:  MOVLW  85
2202:  MOVWF  1F
.................... if(leitura >= 48929 && leitura <= 49952) 
2204:  MOVF   3B,W
2206:  SUBLW  BE
2208:  BC    222E
220A:  XORLW  FF
220C:  BNZ   2214
220E:  MOVF   3A,W
2210:  SUBLW  20
2212:  BC    222E
2214:  MOVF   3B,W
2216:  SUBLW  C3
2218:  BNC   222E
221A:  BNZ   2222
221C:  MOVF   3A,W
221E:  SUBLW  20
2220:  BNC   222E
.................... {y=120;} 
2222:  CLRF   22
2224:  CLRF   21
2226:  MOVLW  70
2228:  MOVWF  20
222A:  MOVLW  85
222C:  MOVWF  1F
.................... if(leitura >= 49953 && leitura <= 51104) 
222E:  MOVF   3B,W
2230:  SUBLW  C2
2232:  BC    2258
2234:  XORLW  FF
2236:  BNZ   223E
2238:  MOVF   3A,W
223A:  SUBLW  20
223C:  BC    2258
223E:  MOVF   3B,W
2240:  SUBLW  C7
2242:  BNC   2258
2244:  BNZ   224C
2246:  MOVF   3A,W
2248:  SUBLW  A0
224A:  BNC   2258
.................... {y=130;} 
224C:  CLRF   22
224E:  CLRF   21
2250:  MOVLW  02
2252:  MOVWF  20
2254:  MOVLW  86
2256:  MOVWF  1F
.................... if(leitura >= 51105 && leitura <= 52192) 
2258:  MOVF   3B,W
225A:  SUBLW  C6
225C:  BC    2282
225E:  XORLW  FF
2260:  BNZ   2268
2262:  MOVF   3A,W
2264:  SUBLW  A0
2266:  BC    2282
2268:  MOVF   3B,W
226A:  SUBLW  CB
226C:  BNC   2282
226E:  BNZ   2276
2270:  MOVF   3A,W
2272:  SUBLW  E0
2274:  BNC   2282
.................... {y=150;} 
2276:  CLRF   22
2278:  CLRF   21
227A:  MOVLW  16
227C:  MOVWF  20
227E:  MOVLW  86
2280:  MOVWF  1F
.................... if(leitura >= 52193 && leitura <= 53120) 
2282:  MOVF   3B,W
2284:  SUBLW  CA
2286:  BC    22AC
2288:  XORLW  FF
228A:  BNZ   2292
228C:  MOVF   3A,W
228E:  SUBLW  E0
2290:  BC    22AC
2292:  MOVF   3B,W
2294:  SUBLW  CF
2296:  BNC   22AC
2298:  BNZ   22A0
229A:  MOVF   3A,W
229C:  SUBLW  80
229E:  BNC   22AC
.................... {y=160;} 
22A0:  CLRF   22
22A2:  CLRF   21
22A4:  MOVLW  20
22A6:  MOVWF  20
22A8:  MOVLW  86
22AA:  MOVWF  1F
.................... if(leitura >= 53121 && leitura <= 54176) 
22AC:  MOVF   3B,W
22AE:  SUBLW  CE
22B0:  BC    22D6
22B2:  XORLW  FF
22B4:  BNZ   22BC
22B6:  MOVF   3A,W
22B8:  SUBLW  80
22BA:  BC    22D6
22BC:  MOVF   3B,W
22BE:  SUBLW  D3
22C0:  BNC   22D6
22C2:  BNZ   22CA
22C4:  MOVF   3A,W
22C6:  SUBLW  A0
22C8:  BNC   22D6
.................... {y=180;} 
22CA:  CLRF   22
22CC:  CLRF   21
22CE:  MOVLW  34
22D0:  MOVWF  20
22D2:  MOVLW  86
22D4:  MOVWF  1F
.................... if(leitura >= 54177 && leitura <= 55072) 
22D6:  MOVF   3B,W
22D8:  SUBLW  D2
22DA:  BC    2300
22DC:  XORLW  FF
22DE:  BNZ   22E6
22E0:  MOVF   3A,W
22E2:  SUBLW  A0
22E4:  BC    2300
22E6:  MOVF   3B,W
22E8:  SUBLW  D7
22EA:  BNC   2300
22EC:  BNZ   22F4
22EE:  MOVF   3A,W
22F0:  SUBLW  20
22F2:  BNC   2300
.................... {y=200;} 
22F4:  CLRF   22
22F6:  CLRF   21
22F8:  MOVLW  48
22FA:  MOVWF  20
22FC:  MOVLW  86
22FE:  MOVWF  1F
.................... if(leitura >= 55073 && leitura <= 55872) 
2300:  MOVF   3B,W
2302:  SUBLW  D6
2304:  BC    232A
2306:  XORLW  FF
2308:  BNZ   2310
230A:  MOVF   3A,W
230C:  SUBLW  20
230E:  BC    232A
2310:  MOVF   3B,W
2312:  SUBLW  DA
2314:  BNC   232A
2316:  BNZ   231E
2318:  MOVF   3A,W
231A:  SUBLW  40
231C:  BNC   232A
.................... {y=220;} 
231E:  CLRF   22
2320:  CLRF   21
2322:  MOVLW  5C
2324:  MOVWF  20
2326:  MOVLW  86
2328:  MOVWF  1F
.................... if(leitura >= 55873 && leitura <= 56672) 
232A:  MOVF   3B,W
232C:  SUBLW  D9
232E:  BC    2354
2330:  XORLW  FF
2332:  BNZ   233A
2334:  MOVF   3A,W
2336:  SUBLW  40
2338:  BC    2354
233A:  MOVF   3B,W
233C:  SUBLW  DD
233E:  BNC   2354
2340:  BNZ   2348
2342:  MOVF   3A,W
2344:  SUBLW  60
2346:  BNC   2354
.................... {y=240;} 
2348:  CLRF   22
234A:  CLRF   21
234C:  MOVLW  70
234E:  MOVWF  20
2350:  MOVLW  86
2352:  MOVWF  1F
.................... if(leitura >= 56673 && leitura <= 57540) 
2354:  MOVF   3B,W
2356:  SUBLW  DC
2358:  BC    237E
235A:  XORLW  FF
235C:  BNZ   2364
235E:  MOVF   3A,W
2360:  SUBLW  60
2362:  BC    237E
2364:  MOVF   3B,W
2366:  SUBLW  E0
2368:  BNC   237E
236A:  BNZ   2372
236C:  MOVF   3A,W
236E:  SUBLW  C4
2370:  BNC   237E
.................... {y=270;} 
2372:  CLRF   22
2374:  CLRF   21
2376:  MOVLW  07
2378:  MOVWF  20
237A:  MOVLW  87
237C:  MOVWF  1F
.................... if(leitura >= 57541 && leitura <= 58180) 
237E:  MOVF   3B,W
2380:  SUBLW  DF
2382:  BC    23A8
2384:  XORLW  FF
2386:  BNZ   238E
2388:  MOVF   3A,W
238A:  SUBLW  C4
238C:  BC    23A8
238E:  MOVF   3B,W
2390:  SUBLW  E3
2392:  BNC   23A8
2394:  BNZ   239C
2396:  MOVF   3A,W
2398:  SUBLW  44
239A:  BNC   23A8
.................... {y=300;} 
239C:  CLRF   22
239E:  CLRF   21
23A0:  MOVLW  16
23A2:  MOVWF  20
23A4:  MOVLW  87
23A6:  MOVWF  1F
.................... if(leitura >= 58181 && leitura <= 58560) 
23A8:  MOVF   3B,W
23AA:  SUBLW  E2
23AC:  BC    23D2
23AE:  XORLW  FF
23B0:  BNZ   23B8
23B2:  MOVF   3A,W
23B4:  SUBLW  44
23B6:  BC    23D2
23B8:  MOVF   3B,W
23BA:  SUBLW  E4
23BC:  BNC   23D2
23BE:  BNZ   23C6
23C0:  MOVF   3A,W
23C2:  SUBLW  C0
23C4:  BNC   23D2
.................... {y=330;} 
23C6:  CLRF   22
23C8:  CLRF   21
23CA:  MOVLW  25
23CC:  MOVWF  20
23CE:  MOVLW  87
23D0:  MOVWF  1F
.................... if(leitura >= 58561 && leitura <= 59008) 
23D2:  MOVF   3B,W
23D4:  SUBLW  E3
23D6:  BC    23FC
23D8:  XORLW  FF
23DA:  BNZ   23E2
23DC:  MOVF   3A,W
23DE:  SUBLW  C0
23E0:  BC    23FC
23E2:  MOVF   3B,W
23E4:  SUBLW  E6
23E6:  BNC   23FC
23E8:  BNZ   23F0
23EA:  MOVF   3A,W
23EC:  SUBLW  80
23EE:  BNC   23FC
.................... {y=360;} 
23F0:  CLRF   22
23F2:  CLRF   21
23F4:  MOVLW  34
23F6:  MOVWF  20
23F8:  MOVLW  87
23FA:  MOVWF  1F
.................... if(leitura >= 59009  && leitura <= 59520) 
23FC:  MOVF   3B,W
23FE:  SUBLW  E5
2400:  BC    2426
2402:  XORLW  FF
2404:  BNZ   240C
2406:  MOVF   3A,W
2408:  SUBLW  80
240A:  BC    2426
240C:  MOVF   3B,W
240E:  SUBLW  E8
2410:  BNC   2426
2412:  BNZ   241A
2414:  MOVF   3A,W
2416:  SUBLW  80
2418:  BNC   2426
.................... {y=390;} 
241A:  CLRF   22
241C:  CLRF   21
241E:  MOVLW  43
2420:  MOVWF  20
2422:  MOVLW  87
2424:  MOVWF  1F
.................... if(leitura >= 59521  && leitura <= 59968) 
2426:  MOVF   3B,W
2428:  SUBLW  E7
242A:  BC    2450
242C:  XORLW  FF
242E:  BNZ   2436
2430:  MOVF   3A,W
2432:  SUBLW  80
2434:  BC    2450
2436:  MOVF   3B,W
2438:  SUBLW  EA
243A:  BNC   2450
243C:  BNZ   2444
243E:  MOVF   3A,W
2440:  SUBLW  40
2442:  BNC   2450
.................... {y=430;} 
2444:  CLRF   22
2446:  CLRF   21
2448:  MOVLW  57
244A:  MOVWF  20
244C:  MOVLW  87
244E:  MOVWF  1F
.................... if(leitura >= 59969  && leitura <= 60352) 
2450:  MOVF   3B,W
2452:  SUBLW  E9
2454:  BC    247A
2456:  XORLW  FF
2458:  BNZ   2460
245A:  MOVF   3A,W
245C:  SUBLW  40
245E:  BC    247A
2460:  MOVF   3B,W
2462:  SUBLW  EB
2464:  BNC   247A
2466:  BNZ   246E
2468:  MOVF   3A,W
246A:  SUBLW  C0
246C:  BNC   247A
.................... {y=470;} 
246E:  CLRF   22
2470:  CLRF   21
2472:  MOVLW  6B
2474:  MOVWF  20
2476:  MOVLW  87
2478:  MOVWF  1F
.................... if(leitura >= 60353  && leitura <= 60704) 
247A:  MOVF   3B,W
247C:  SUBLW  EA
247E:  BC    24A4
2480:  XORLW  FF
2482:  BNZ   248A
2484:  MOVF   3A,W
2486:  SUBLW  C0
2488:  BC    24A4
248A:  MOVF   3B,W
248C:  SUBLW  ED
248E:  BNC   24A4
2490:  BNZ   2498
2492:  MOVF   3A,W
2494:  SUBLW  20
2496:  BNC   24A4
.................... {y=510;} 
2498:  CLRF   22
249A:  CLRF   21
249C:  MOVLW  7F
249E:  MOVWF  20
24A0:  MOVLW  87
24A2:  MOVWF  1F
.................... if(leitura >= 60705  && leitura <= 61056) 
24A4:  MOVF   3B,W
24A6:  SUBLW  EC
24A8:  BC    24CE
24AA:  XORLW  FF
24AC:  BNZ   24B4
24AE:  MOVF   3A,W
24B0:  SUBLW  20
24B2:  BC    24CE
24B4:  MOVF   3B,W
24B6:  SUBLW  EE
24B8:  BNC   24CE
24BA:  BNZ   24C2
24BC:  MOVF   3A,W
24BE:  SUBLW  80
24C0:  BNC   24CE
.................... {y=560;} 
24C2:  CLRF   22
24C4:  CLRF   21
24C6:  MOVLW  0C
24C8:  MOVWF  20
24CA:  MOVLW  88
24CC:  MOVWF  1F
.................... if(leitura >= 61057  && leitura <= 61376) 
24CE:  MOVF   3B,W
24D0:  SUBLW  ED
24D2:  BC    24F8
24D4:  XORLW  FF
24D6:  BNZ   24DE
24D8:  MOVF   3A,W
24DA:  SUBLW  80
24DC:  BC    24F8
24DE:  MOVF   3B,W
24E0:  SUBLW  EF
24E2:  BNC   24F8
24E4:  BNZ   24EC
24E6:  MOVF   3A,W
24E8:  SUBLW  C0
24EA:  BNC   24F8
.................... {y=620;} 
24EC:  CLRF   22
24EE:  CLRF   21
24F0:  MOVLW  1B
24F2:  MOVWF  20
24F4:  MOVLW  88
24F6:  MOVWF  1F
.................... if(leitura >= 61377  && leitura <= 61696) 
24F8:  MOVF   3B,W
24FA:  SUBLW  EE
24FC:  BC    2522
24FE:  XORLW  FF
2500:  BNZ   2508
2502:  MOVF   3A,W
2504:  SUBLW  C0
2506:  BC    2522
2508:  MOVF   3B,W
250A:  SUBLW  F1
250C:  BNC   2522
250E:  BNZ   2516
2510:  MOVF   3A,W
2512:  SUBLW  00
2514:  BNC   2522
.................... {y=680;} 
2516:  CLRF   22
2518:  CLRF   21
251A:  MOVLW  2A
251C:  MOVWF  20
251E:  MOVLW  88
2520:  MOVWF  1F
.................... if(leitura >= 61697  && leitura <= 62016) 
2522:  MOVF   3B,W
2524:  SUBLW  F0
2526:  BC    254E
2528:  XORLW  FF
252A:  BNZ   2532
252C:  MOVF   3A,W
252E:  SUBLW  00
2530:  BC    254E
2532:  MOVF   3B,W
2534:  SUBLW  F2
2536:  BNC   254E
2538:  BNZ   2540
253A:  MOVF   3A,W
253C:  SUBLW  40
253E:  BNC   254E
.................... {y=750;} 
2540:  CLRF   22
2542:  MOVLW  80
2544:  MOVWF  21
2546:  MOVLW  3B
2548:  MOVWF  20
254A:  MOVLW  88
254C:  MOVWF  1F
.................... if(leitura >= 62017  && leitura <= 62272) 
254E:  MOVF   3B,W
2550:  SUBLW  F1
2552:  BC    2578
2554:  XORLW  FF
2556:  BNZ   255E
2558:  MOVF   3A,W
255A:  SUBLW  40
255C:  BC    2578
255E:  MOVF   3B,W
2560:  SUBLW  F3
2562:  BNC   2578
2564:  BNZ   256C
2566:  MOVF   3A,W
2568:  SUBLW  40
256A:  BNC   2578
.................... {y=820;} 
256C:  CLRF   22
256E:  CLRF   21
2570:  MOVLW  4D
2572:  MOVWF  20
2574:  MOVLW  88
2576:  MOVWF  1F
.................... if(leitura >= 62273  && leitura <= 62750) 
2578:  MOVF   3B,W
257A:  SUBLW  F2
257C:  BC    25A4
257E:  XORLW  FF
2580:  BNZ   2588
2582:  MOVF   3A,W
2584:  SUBLW  40
2586:  BC    25A4
2588:  MOVF   3B,W
258A:  SUBLW  F5
258C:  BNC   25A4
258E:  BNZ   2596
2590:  MOVF   3A,W
2592:  SUBLW  1E
2594:  BNC   25A4
.................... {y=910;}} 
2596:  CLRF   22
2598:  MOVLW  80
259A:  MOVWF  21
259C:  MOVLW  63
259E:  MOVWF  20
25A0:  MOVLW  88
25A2:  MOVWF  1F
....................        
....................  if(kohm==0 && mohm==1){ 
25A4:  MOVF   3D,F
25A6:  BTFSS  FD8.2
25A8:  GOTO   2B56
25AC:  DECFSZ 3C,W
25AE:  GOTO   2B56
....................  
.................... if(leitura >= 1600 && leitura <= 1856) 
25B2:  MOVF   3B,W
25B4:  SUBLW  05
25B6:  BC    25DA
25B8:  XORLW  FF
25BA:  BNZ   25C2
25BC:  MOVF   3A,W
25BE:  SUBLW  3F
25C0:  BC    25DA
25C2:  MOVF   3B,W
25C4:  SUBLW  07
25C6:  BNC   25DA
25C8:  BNZ   25D0
25CA:  MOVF   3A,W
25CC:  SUBLW  40
25CE:  BNC   25DA
.................... {y=1;} 
25D0:  CLRF   22
25D2:  CLRF   21
25D4:  CLRF   20
25D6:  MOVLW  7F
25D8:  MOVWF  1F
.................... if(leitura >= 1857 && leitura <= 2016) 
25DA:  MOVF   3B,W
25DC:  SUBLW  06
25DE:  BC    2608
25E0:  XORLW  FF
25E2:  BNZ   25EA
25E4:  MOVF   3A,W
25E6:  SUBLW  40
25E8:  BC    2608
25EA:  MOVF   3B,W
25EC:  SUBLW  07
25EE:  BNC   2608
25F0:  BNZ   25F8
25F2:  MOVF   3A,W
25F4:  SUBLW  E0
25F6:  BNC   2608
.................... {y=1.1;} 
25F8:  MOVLW  CD
25FA:  MOVWF  22
25FC:  MOVLW  CC
25FE:  MOVWF  21
2600:  MOVLW  0C
2602:  MOVWF  20
2604:  MOVLW  7F
2606:  MOVWF  1F
.................... if(leitura >= 2017 && leitura <= 2080)  
2608:  MOVF   3B,W
260A:  SUBLW  06
260C:  BC    2636
260E:  XORLW  FF
2610:  BNZ   2618
2612:  MOVF   3A,W
2614:  SUBLW  E0
2616:  BC    2636
2618:  MOVF   3B,W
261A:  SUBLW  08
261C:  BNC   2636
261E:  BNZ   2626
2620:  MOVF   3A,W
2622:  SUBLW  20
2624:  BNC   2636
.................... {y=1.2;} 
2626:  MOVLW  9A
2628:  MOVWF  22
262A:  MOVLW  99
262C:  MOVWF  21
262E:  MOVLW  19
2630:  MOVWF  20
2632:  MOVLW  7F
2634:  MOVWF  1F
.................... if(leitura >= 2081 && leitura <= 2336) 
2636:  MOVF   3B,W
2638:  SUBLW  07
263A:  BC    2662
263C:  XORLW  FF
263E:  BNZ   2646
2640:  MOVF   3A,W
2642:  SUBLW  20
2644:  BC    2662
2646:  MOVF   3B,W
2648:  SUBLW  09
264A:  BNC   2662
264C:  BNZ   2654
264E:  MOVF   3A,W
2650:  SUBLW  20
2652:  BNC   2662
.................... {y=1.3;} 
2654:  MOVLW  66
2656:  MOVWF  22
2658:  MOVWF  21
265A:  MOVLW  26
265C:  MOVWF  20
265E:  MOVLW  7F
2660:  MOVWF  1F
.................... if(leitura >= 2337 && leitura <= 2656) 
2662:  MOVF   3B,W
2664:  SUBLW  08
2666:  BC    268C
2668:  XORLW  FF
266A:  BNZ   2672
266C:  MOVF   3A,W
266E:  SUBLW  20
2670:  BC    268C
2672:  MOVF   3B,W
2674:  SUBLW  0A
2676:  BNC   268C
2678:  BNZ   2680
267A:  MOVF   3A,W
267C:  SUBLW  60
267E:  BNC   268C
.................... {y=1.5;} 
2680:  CLRF   22
2682:  CLRF   21
2684:  MOVLW  40
2686:  MOVWF  20
2688:  MOVLW  7F
268A:  MOVWF  1F
.................... if(leitura >= 2657 && leitura <= 2880) 
268C:  MOVF   3B,W
268E:  SUBLW  09
2690:  BC    26BA
2692:  XORLW  FF
2694:  BNZ   269C
2696:  MOVF   3A,W
2698:  SUBLW  60
269A:  BC    26BA
269C:  MOVF   3B,W
269E:  SUBLW  0B
26A0:  BNC   26BA
26A2:  BNZ   26AA
26A4:  MOVF   3A,W
26A6:  SUBLW  40
26A8:  BNC   26BA
.................... {y=1.6;} 
26AA:  MOVLW  CD
26AC:  MOVWF  22
26AE:  MOVLW  CC
26B0:  MOVWF  21
26B2:  MOVLW  4C
26B4:  MOVWF  20
26B6:  MOVLW  7F
26B8:  MOVWF  1F
.................... if(leitura >= 2881 && leitura <= 3186) 
26BA:  MOVF   3B,W
26BC:  SUBLW  0A
26BE:  BC    26E4
26C0:  XORLW  FF
26C2:  BNZ   26CA
26C4:  MOVF   3A,W
26C6:  SUBLW  40
26C8:  BC    26E4
26CA:  MOVF   3B,W
26CC:  SUBLW  0C
26CE:  BNC   26E4
26D0:  BNZ   26D8
26D2:  MOVF   3A,W
26D4:  SUBLW  72
26D6:  BNC   26E4
.................... {y=1.8;} 
26D8:  MOVLW  66
26DA:  MOVWF  22
26DC:  MOVWF  21
26DE:  MOVWF  20
26E0:  MOVLW  7F
26E2:  MOVWF  1F
.................... if(leitura >= 3187 && leitura <= 3506) 
26E4:  MOVF   3B,W
26E6:  SUBLW  0B
26E8:  BC    270C
26EA:  XORLW  FF
26EC:  BNZ   26F4
26EE:  MOVF   3A,W
26F0:  SUBLW  72
26F2:  BC    270C
26F4:  MOVF   3B,W
26F6:  SUBLW  0D
26F8:  BNC   270C
26FA:  BNZ   2702
26FC:  MOVF   3A,W
26FE:  SUBLW  B2
2700:  BNC   270C
.................... {y=2;} 
2702:  CLRF   22
2704:  CLRF   21
2706:  CLRF   20
2708:  MOVLW  80
270A:  MOVWF  1F
.................... if(leitura >= 3507 && leitura <= 3872) 
270C:  MOVF   3B,W
270E:  SUBLW  0C
2710:  BC    273A
2712:  XORLW  FF
2714:  BNZ   271C
2716:  MOVF   3A,W
2718:  SUBLW  B2
271A:  BC    273A
271C:  MOVF   3B,W
271E:  SUBLW  0F
2720:  BNC   273A
2722:  BNZ   272A
2724:  MOVF   3A,W
2726:  SUBLW  20
2728:  BNC   273A
.................... {y=2.2;} 
272A:  MOVLW  CD
272C:  MOVWF  22
272E:  MOVLW  CC
2730:  MOVWF  21
2732:  MOVLW  0C
2734:  MOVWF  20
2736:  MOVLW  80
2738:  MOVWF  1F
.................... if(leitura >= 3873 && leitura <= 4320) 
273A:  MOVF   3B,W
273C:  SUBLW  0E
273E:  BC    2768
2740:  XORLW  FF
2742:  BNZ   274A
2744:  MOVF   3A,W
2746:  SUBLW  20
2748:  BC    2768
274A:  MOVF   3B,W
274C:  SUBLW  10
274E:  BNC   2768
2750:  BNZ   2758
2752:  MOVF   3A,W
2754:  SUBLW  E0
2756:  BNC   2768
.................... {y=2.4;} 
2758:  MOVLW  9A
275A:  MOVWF  22
275C:  MOVLW  99
275E:  MOVWF  21
2760:  MOVLW  19
2762:  MOVWF  20
2764:  MOVLW  80
2766:  MOVWF  1F
.................... if(leitura >= 4321 && leitura <= 4832) 
2768:  MOVF   3B,W
276A:  SUBLW  0F
276C:  BC    2796
276E:  XORLW  FF
2770:  BNZ   2778
2772:  MOVF   3A,W
2774:  SUBLW  E0
2776:  BC    2796
2778:  MOVF   3B,W
277A:  SUBLW  12
277C:  BNC   2796
277E:  BNZ   2786
2780:  MOVF   3A,W
2782:  SUBLW  E0
2784:  BNC   2796
.................... {y=2.7;} 
2786:  MOVLW  CD
2788:  MOVWF  22
278A:  MOVLW  CC
278C:  MOVWF  21
278E:  MOVLW  2C
2790:  MOVWF  20
2792:  MOVLW  80
2794:  MOVWF  1F
.................... if(leitura >= 4833 && leitura <= 5504) 
2796:  MOVF   3B,W
2798:  SUBLW  11
279A:  BC    27C0
279C:  XORLW  FF
279E:  BNZ   27A6
27A0:  MOVF   3A,W
27A2:  SUBLW  E0
27A4:  BC    27C0
27A6:  MOVF   3B,W
27A8:  SUBLW  15
27AA:  BNC   27C0
27AC:  BNZ   27B4
27AE:  MOVF   3A,W
27B0:  SUBLW  80
27B2:  BNC   27C0
.................... {y=3;} 
27B4:  CLRF   22
27B6:  CLRF   21
27B8:  MOVLW  40
27BA:  MOVWF  20
27BC:  MOVLW  80
27BE:  MOVWF  1F
.................... if(leitura >= 5505 && leitura <= 6080) 
27C0:  MOVF   3B,W
27C2:  SUBLW  14
27C4:  BC    27EC
27C6:  XORLW  FF
27C8:  BNZ   27D0
27CA:  MOVF   3A,W
27CC:  SUBLW  80
27CE:  BC    27EC
27D0:  MOVF   3B,W
27D2:  SUBLW  17
27D4:  BNC   27EC
27D6:  BNZ   27DE
27D8:  MOVF   3A,W
27DA:  SUBLW  C0
27DC:  BNC   27EC
.................... {y=3.3;} 
27DE:  MOVLW  33
27E0:  MOVWF  22
27E2:  MOVWF  21
27E4:  MOVLW  53
27E6:  MOVWF  20
27E8:  MOVLW  80
27EA:  MOVWF  1F
.................... if(leitura >= 5081 && leitura <= 6432) 
27EC:  MOVF   3B,W
27EE:  SUBLW  12
27F0:  BC    2816
27F2:  XORLW  FF
27F4:  BNZ   27FC
27F6:  MOVF   3A,W
27F8:  SUBLW  D8
27FA:  BC    2816
27FC:  MOVF   3B,W
27FE:  SUBLW  19
2800:  BNC   2816
2802:  BNZ   280A
2804:  MOVF   3A,W
2806:  SUBLW  20
2808:  BNC   2816
.................... {y=3.6;} 
280A:  MOVLW  66
280C:  MOVWF  22
280E:  MOVWF  21
2810:  MOVWF  20
2812:  MOVLW  80
2814:  MOVWF  1F
.................... if(leitura >= 6433 && leitura <= 6976) 
2816:  MOVF   3B,W
2818:  SUBLW  18
281A:  BC    2844
281C:  XORLW  FF
281E:  BNZ   2826
2820:  MOVF   3A,W
2822:  SUBLW  20
2824:  BC    2844
2826:  MOVF   3B,W
2828:  SUBLW  1B
282A:  BNC   2844
282C:  BNZ   2834
282E:  MOVF   3A,W
2830:  SUBLW  40
2832:  BNC   2844
.................... {y=3.9;} 
2834:  MOVLW  9A
2836:  MOVWF  22
2838:  MOVLW  99
283A:  MOVWF  21
283C:  MOVLW  79
283E:  MOVWF  20
2840:  MOVLW  80
2842:  MOVWF  1F
.................... if(leitura >= 6977 && leitura <= 7552) 
2844:  MOVF   3B,W
2846:  SUBLW  1A
2848:  BC    2872
284A:  XORLW  FF
284C:  BNZ   2854
284E:  MOVF   3A,W
2850:  SUBLW  40
2852:  BC    2872
2854:  MOVF   3B,W
2856:  SUBLW  1D
2858:  BNC   2872
285A:  BNZ   2862
285C:  MOVF   3A,W
285E:  SUBLW  80
2860:  BNC   2872
.................... {y=4.3;} 
2862:  MOVLW  9A
2864:  MOVWF  22
2866:  MOVLW  99
2868:  MOVWF  21
286A:  MOVLW  09
286C:  MOVWF  20
286E:  MOVLW  81
2870:  MOVWF  1F
.................... if(leitura >= 7553 && leitura <= 8416) 
2872:  MOVF   3B,W
2874:  SUBLW  1C
2876:  BC    28AA
2878:  XORLW  FF
287A:  BNZ   2882
287C:  MOVF   3A,W
287E:  SUBLW  80
2880:  BC    28AA
2882:  MOVF   3B,W
2884:  SUBLW  20
2886:  BNC   28AA
2888:  BNZ   2890
288A:  MOVF   3A,W
288C:  SUBLW  E0
288E:  BNC   28AA
.................... {y=4.7; if(kohm==0 && mohm==1){c=169;}} 
2890:  MOVLW  66
2892:  MOVWF  22
2894:  MOVWF  21
2896:  MOVLW  16
2898:  MOVWF  20
289A:  MOVLW  81
289C:  MOVWF  1F
289E:  MOVF   3D,F
28A0:  BNZ   28AA
28A2:  DECFSZ 3C,W
28A4:  BRA    28AA
28A6:  MOVLW  A9
28A8:  MOVWF  34
.................... if(leitura >= 8417 && leitura <= 9456) 
28AA:  MOVF   3B,W
28AC:  SUBLW  1F
28AE:  BC    28D6
28B0:  XORLW  FF
28B2:  BNZ   28BA
28B4:  MOVF   3A,W
28B6:  SUBLW  E0
28B8:  BC    28D6
28BA:  MOVF   3B,W
28BC:  SUBLW  24
28BE:  BNC   28D6
28C0:  BNZ   28C8
28C2:  MOVF   3A,W
28C4:  SUBLW  F0
28C6:  BNC   28D6
.................... {y=5.1;} 
28C8:  MOVLW  33
28CA:  MOVWF  22
28CC:  MOVWF  21
28CE:  MOVLW  23
28D0:  MOVWF  20
28D2:  MOVLW  81
28D4:  MOVWF  1F
.................... if(leitura >= 9457 && leitura <= 10062) 
28D6:  MOVF   3B,W
28D8:  SUBLW  23
28DA:  BC    2900
28DC:  XORLW  FF
28DE:  BNZ   28E6
28E0:  MOVF   3A,W
28E2:  SUBLW  F0
28E4:  BC    2900
28E6:  MOVF   3B,W
28E8:  SUBLW  27
28EA:  BNC   2900
28EC:  BNZ   28F4
28EE:  MOVF   3A,W
28F0:  SUBLW  4E
28F2:  BNC   2900
.................... {y=5.6;} 
28F4:  MOVLW  33
28F6:  MOVWF  22
28F8:  MOVWF  21
28FA:  MOVWF  20
28FC:  MOVLW  81
28FE:  MOVWF  1F
.................... if(leitura >= 10063 && leitura <= 10851) 
2900:  MOVF   3B,W
2902:  SUBLW  26
2904:  BC    292C
2906:  XORLW  FF
2908:  BNZ   2910
290A:  MOVF   3A,W
290C:  SUBLW  4E
290E:  BC    292C
2910:  MOVF   3B,W
2912:  SUBLW  2A
2914:  BNC   292C
2916:  BNZ   291E
2918:  MOVF   3A,W
291A:  SUBLW  63
291C:  BNC   292C
.................... {y=6.2;} 
291E:  MOVLW  66
2920:  MOVWF  22
2922:  MOVWF  21
2924:  MOVLW  46
2926:  MOVWF  20
2928:  MOVLW  81
292A:  MOVWF  1F
.................... if(leitura >= 10852 && leitura <= 12003) 
292C:  MOVF   3B,W
292E:  SUBLW  29
2930:  BC    295A
2932:  XORLW  FF
2934:  BNZ   293C
2936:  MOVF   3A,W
2938:  SUBLW  63
293A:  BC    295A
293C:  MOVF   3B,W
293E:  SUBLW  2E
2940:  BNC   295A
2942:  BNZ   294A
2944:  MOVF   3A,W
2946:  SUBLW  E3
2948:  BNC   295A
.................... {y=6.8;} 
294A:  MOVLW  9A
294C:  MOVWF  22
294E:  MOVLW  99
2950:  MOVWF  21
2952:  MOVLW  59
2954:  MOVWF  20
2956:  MOVLW  81
2958:  MOVWF  1F
.................... if(leitura >= 12004 && leitura <= 13280) 
295A:  MOVF   3B,W
295C:  SUBLW  2D
295E:  BC    2984
2960:  XORLW  FF
2962:  BNZ   296A
2964:  MOVF   3A,W
2966:  SUBLW  E3
2968:  BC    2984
296A:  MOVF   3B,W
296C:  SUBLW  33
296E:  BNC   2984
2970:  BNZ   2978
2972:  MOVF   3A,W
2974:  SUBLW  E0
2976:  BNC   2984
.................... {y=7.5;}  
2978:  CLRF   22
297A:  CLRF   21
297C:  MOVLW  70
297E:  MOVWF  20
2980:  MOVLW  81
2982:  MOVWF  1F
.................... if(leitura >= 13281 && leitura <= 14848) 
2984:  MOVF   3B,W
2986:  SUBLW  32
2988:  BC    29B0
298A:  XORLW  FF
298C:  BNZ   2994
298E:  MOVF   3A,W
2990:  SUBLW  E0
2992:  BC    29B0
2994:  MOVF   3B,W
2996:  SUBLW  3A
2998:  BNC   29B0
299A:  BNZ   29A2
299C:  MOVF   3A,W
299E:  SUBLW  00
29A0:  BNC   29B0
.................... {y=8.2;} 
29A2:  MOVLW  33
29A4:  MOVWF  22
29A6:  MOVWF  21
29A8:  MOVLW  03
29AA:  MOVWF  20
29AC:  MOVLW  82
29AE:  MOVWF  1F
.................... if(leitura >= 14849 && leitura <= 15840) 
29B0:  MOVF   3B,W
29B2:  SUBLW  39
29B4:  BC    29DE
29B6:  XORLW  FF
29B8:  BNZ   29C0
29BA:  MOVF   3A,W
29BC:  SUBLW  00
29BE:  BC    29DE
29C0:  MOVF   3B,W
29C2:  SUBLW  3D
29C4:  BNC   29DE
29C6:  BNZ   29CE
29C8:  MOVF   3A,W
29CA:  SUBLW  E0
29CC:  BNC   29DE
.................... {y=9.1;} 
29CE:  MOVLW  9A
29D0:  MOVWF  22
29D2:  MOVLW  99
29D4:  MOVWF  21
29D6:  MOVLW  11
29D8:  MOVWF  20
29DA:  MOVLW  82
29DC:  MOVWF  1F
.................... if(leitura >= 15841 && leitura <= 16736) 
29DE:  MOVF   3B,W
29E0:  SUBLW  3C
29E2:  BC    2A08
29E4:  XORLW  FF
29E6:  BNZ   29EE
29E8:  MOVF   3A,W
29EA:  SUBLW  E0
29EC:  BC    2A08
29EE:  MOVF   3B,W
29F0:  SUBLW  41
29F2:  BNC   2A08
29F4:  BNZ   29FC
29F6:  MOVF   3A,W
29F8:  SUBLW  60
29FA:  BNC   2A08
.................... {y=10;} 
29FC:  CLRF   22
29FE:  CLRF   21
2A00:  MOVLW  20
2A02:  MOVWF  20
2A04:  MOVLW  82
2A06:  MOVWF  1F
.................... if(leitura >= 16737 && leitura <= 17408) 
2A08:  MOVF   3B,W
2A0A:  SUBLW  40
2A0C:  BC    2A32
2A0E:  XORLW  FF
2A10:  BNZ   2A18
2A12:  MOVF   3A,W
2A14:  SUBLW  60
2A16:  BC    2A32
2A18:  MOVF   3B,W
2A1A:  SUBLW  44
2A1C:  BNC   2A32
2A1E:  BNZ   2A26
2A20:  MOVF   3A,W
2A22:  SUBLW  00
2A24:  BNC   2A32
.................... {y=11;} 
2A26:  CLRF   22
2A28:  CLRF   21
2A2A:  MOVLW  30
2A2C:  MOVWF  20
2A2E:  MOVLW  82
2A30:  MOVWF  1F
.................... if(leitura >= 17409 && leitura <= 18474) 
2A32:  MOVF   3B,W
2A34:  SUBLW  43
2A36:  BC    2A5C
2A38:  XORLW  FF
2A3A:  BNZ   2A42
2A3C:  MOVF   3A,W
2A3E:  SUBLW  00
2A40:  BC    2A5C
2A42:  MOVF   3B,W
2A44:  SUBLW  48
2A46:  BNC   2A5C
2A48:  BNZ   2A50
2A4A:  MOVF   3A,W
2A4C:  SUBLW  2A
2A4E:  BNC   2A5C
.................... {y=12;} 
2A50:  CLRF   22
2A52:  CLRF   21
2A54:  MOVLW  40
2A56:  MOVWF  20
2A58:  MOVLW  82
2A5A:  MOVWF  1F
.................... if(leitura >= 18475 && leitura <= 20842) 
2A5C:  MOVF   3B,W
2A5E:  SUBLW  47
2A60:  BC    2A86
2A62:  XORLW  FF
2A64:  BNZ   2A6C
2A66:  MOVF   3A,W
2A68:  SUBLW  2A
2A6A:  BC    2A86
2A6C:  MOVF   3B,W
2A6E:  SUBLW  51
2A70:  BNC   2A86
2A72:  BNZ   2A7A
2A74:  MOVF   3A,W
2A76:  SUBLW  6A
2A78:  BNC   2A86
.................... {y=13;} 
2A7A:  CLRF   22
2A7C:  CLRF   21
2A7E:  MOVLW  50
2A80:  MOVWF  20
2A82:  MOVLW  82
2A84:  MOVWF  1F
.................... if(leitura >= 20843 && leitura <= 22752) 
2A86:  MOVF   3B,W
2A88:  SUBLW  50
2A8A:  BC    2AB0
2A8C:  XORLW  FF
2A8E:  BNZ   2A96
2A90:  MOVF   3A,W
2A92:  SUBLW  6A
2A94:  BC    2AB0
2A96:  MOVF   3B,W
2A98:  SUBLW  58
2A9A:  BNC   2AB0
2A9C:  BNZ   2AA4
2A9E:  MOVF   3A,W
2AA0:  SUBLW  E0
2AA2:  BNC   2AB0
.................... {y=15;} 
2AA4:  CLRF   22
2AA6:  CLRF   21
2AA8:  MOVLW  70
2AAA:  MOVWF  20
2AAC:  MOVLW  82
2AAE:  MOVWF  1F
.................... if(leitura >= 22753 && leitura <= 25313) 
2AB0:  MOVF   3B,W
2AB2:  SUBLW  57
2AB4:  BC    2AD8
2AB6:  XORLW  FF
2AB8:  BNZ   2AC0
2ABA:  MOVF   3A,W
2ABC:  SUBLW  E0
2ABE:  BC    2AD8
2AC0:  MOVF   3B,W
2AC2:  SUBLW  62
2AC4:  BNC   2AD8
2AC6:  BNZ   2ACE
2AC8:  MOVF   3A,W
2ACA:  SUBLW  E1
2ACC:  BNC   2AD8
.................... {y=16;} 
2ACE:  CLRF   22
2AD0:  CLRF   21
2AD2:  CLRF   20
2AD4:  MOVLW  83
2AD6:  MOVWF  1F
.................... if(leitura >= 25614 && leitura <= 26944) 
2AD8:  MOVF   3B,W
2ADA:  SUBLW  63
2ADC:  BC    2B02
2ADE:  XORLW  FF
2AE0:  BNZ   2AE8
2AE2:  MOVF   3A,W
2AE4:  SUBLW  0D
2AE6:  BC    2B02
2AE8:  MOVF   3B,W
2AEA:  SUBLW  69
2AEC:  BNC   2B02
2AEE:  BNZ   2AF6
2AF0:  MOVF   3A,W
2AF2:  SUBLW  40
2AF4:  BNC   2B02
.................... {y=18;} 
2AF6:  CLRF   22
2AF8:  CLRF   21
2AFA:  MOVLW  10
2AFC:  MOVWF  20
2AFE:  MOVLW  83
2B00:  MOVWF  1F
.................... if(leitura >= 26945 && leitura <= 27648) 
2B02:  MOVF   3B,W
2B04:  SUBLW  68
2B06:  BC    2B2C
2B08:  XORLW  FF
2B0A:  BNZ   2B12
2B0C:  MOVF   3A,W
2B0E:  SUBLW  40
2B10:  BC    2B2C
2B12:  MOVF   3B,W
2B14:  SUBLW  6C
2B16:  BNC   2B2C
2B18:  BNZ   2B20
2B1A:  MOVF   3A,W
2B1C:  SUBLW  00
2B1E:  BNC   2B2C
.................... {y=20;} 
2B20:  CLRF   22
2B22:  CLRF   21
2B24:  MOVLW  20
2B26:  MOVWF  20
2B28:  MOVLW  83
2B2A:  MOVWF  1F
.................... if(leitura >= 27649 && leitura <= 28000) 
2B2C:  MOVF   3B,W
2B2E:  SUBLW  6B
2B30:  BC    2B56
2B32:  XORLW  FF
2B34:  BNZ   2B3C
2B36:  MOVF   3A,W
2B38:  SUBLW  00
2B3A:  BC    2B56
2B3C:  MOVF   3B,W
2B3E:  SUBLW  6D
2B40:  BNC   2B56
2B42:  BNZ   2B4A
2B44:  MOVF   3A,W
2B46:  SUBLW  60
2B48:  BNC   2B56
.................... {y=22;}} 
2B4A:  CLRF   22
2B4C:  CLRF   21
2B4E:  MOVLW  30
2B50:  MOVWF  20
2B52:  MOVLW  83
2B54:  MOVWF  1F
....................  
....................   return y; 
2B56:  MOVFF  1F,00
2B5A:  MOVFF  20,01
2B5E:  MOVFF  21,02
2B62:  MOVFF  22,03
....................      } 
2B66:  RETLW  00
....................  
.................... float eepromLER(float v,int kohm,int mohm,int d) 
....................  
.................... //Subrotina que associa um valor FLOAT a um valor INT 
....................  
.................... { 
.................... if (d==1) // Flag de ativao da subrotina 
*
313C:  DECFSZ 40,W
313E:  GOTO   4DDC
.................... { 
.................... if(kohm==0 && mohm==0){  //Flags que indicam que esta  a primeira faixa 
3142:  MOVF   3E,F
3144:  BTFSS  FD8.2
3146:  GOTO   3CA4
314A:  MOVF   3F,F
314C:  BTFSS  FD8.2
314E:  GOTO   3CA4
.................... if(v==1.1){ c=1;} 
3152:  MOVFF  3D,44
3156:  MOVFF  3C,43
315A:  MOVFF  3B,42
315E:  MOVFF  3A,41
3162:  MOVLW  CD
3164:  MOVWF  48
3166:  MOVLW  CC
3168:  MOVWF  47
316A:  MOVLW  0C
316C:  MOVWF  46
316E:  MOVLW  7F
3170:  MOVWF  45
3172:  RCALL  3090
3174:  BNZ   317A
3176:  MOVLW  01
3178:  MOVWF  34
.................... if(v==1.2){c=2;} 
317A:  MOVFF  3D,44
317E:  MOVFF  3C,43
3182:  MOVFF  3B,42
3186:  MOVFF  3A,41
318A:  MOVLW  9A
318C:  MOVWF  48
318E:  MOVLW  99
3190:  MOVWF  47
3192:  MOVLW  19
3194:  MOVWF  46
3196:  MOVLW  7F
3198:  MOVWF  45
319A:  RCALL  3090
319C:  BNZ   31A2
319E:  MOVLW  02
31A0:  MOVWF  34
.................... if(v==1.3){c=3;} 
31A2:  MOVFF  3D,44
31A6:  MOVFF  3C,43
31AA:  MOVFF  3B,42
31AE:  MOVFF  3A,41
31B2:  MOVLW  66
31B4:  MOVWF  48
31B6:  MOVWF  47
31B8:  MOVLW  26
31BA:  MOVWF  46
31BC:  MOVLW  7F
31BE:  MOVWF  45
31C0:  RCALL  3090
31C2:  BNZ   31C8
31C4:  MOVLW  03
31C6:  MOVWF  34
.................... if(v==1.4){c=4;}       
31C8:  MOVFF  3D,44
31CC:  MOVFF  3C,43
31D0:  MOVFF  3B,42
31D4:  MOVFF  3A,41
31D8:  MOVLW  33
31DA:  MOVWF  48
31DC:  MOVWF  47
31DE:  MOVWF  46
31E0:  MOVLW  7F
31E2:  MOVWF  45
31E4:  RCALL  3090
31E6:  BNZ   31EC
31E8:  MOVLW  04
31EA:  MOVWF  34
.................... if(v==1.6){c=5;}       
31EC:  MOVFF  3D,44
31F0:  MOVFF  3C,43
31F4:  MOVFF  3B,42
31F8:  MOVFF  3A,41
31FC:  MOVLW  CD
31FE:  MOVWF  48
3200:  MOVLW  CC
3202:  MOVWF  47
3204:  MOVLW  4C
3206:  MOVWF  46
3208:  MOVLW  7F
320A:  MOVWF  45
320C:  RCALL  3090
320E:  BNZ   3214
3210:  MOVLW  05
3212:  MOVWF  34
.................... if(v==1.7){c=6;}       
3214:  MOVFF  3D,44
3218:  MOVFF  3C,43
321C:  MOVFF  3B,42
3220:  MOVFF  3A,41
3224:  MOVLW  9A
3226:  MOVWF  48
3228:  MOVLW  99
322A:  MOVWF  47
322C:  MOVLW  59
322E:  MOVWF  46
3230:  MOVLW  7F
3232:  MOVWF  45
3234:  RCALL  3090
3236:  BNZ   323C
3238:  MOVLW  06
323A:  MOVWF  34
.................... if(v==1.8){c=7;}       
323C:  MOVFF  3D,44
3240:  MOVFF  3C,43
3244:  MOVFF  3B,42
3248:  MOVFF  3A,41
324C:  MOVLW  66
324E:  MOVWF  48
3250:  MOVWF  47
3252:  MOVWF  46
3254:  MOVLW  7F
3256:  MOVWF  45
3258:  RCALL  3090
325A:  BNZ   3260
325C:  MOVLW  07
325E:  MOVWF  34
.................... if(v==2.1){c=8;}       
3260:  MOVFF  3D,44
3264:  MOVFF  3C,43
3268:  MOVFF  3B,42
326C:  MOVFF  3A,41
3270:  MOVLW  66
3272:  MOVWF  48
3274:  MOVWF  47
3276:  MOVLW  06
3278:  MOVWF  46
327A:  MOVLW  80
327C:  MOVWF  45
327E:  RCALL  3090
3280:  BNZ   3286
3282:  MOVLW  08
3284:  MOVWF  34
.................... if(v==2.3){c=9;}               
3286:  MOVFF  3D,44
328A:  MOVFF  3C,43
328E:  MOVFF  3B,42
3292:  MOVFF  3A,41
3296:  MOVLW  33
3298:  MOVWF  48
329A:  MOVWF  47
329C:  MOVLW  13
329E:  MOVWF  46
32A0:  MOVLW  80
32A2:  MOVWF  45
32A4:  RCALL  3090
32A6:  BNZ   32AC
32A8:  MOVLW  09
32AA:  MOVWF  34
.................... if(v==2.5){c=10;}       
32AC:  MOVFF  3D,44
32B0:  MOVFF  3C,43
32B4:  MOVFF  3B,42
32B8:  MOVFF  3A,41
32BC:  CLRF   48
32BE:  CLRF   47
32C0:  MOVLW  20
32C2:  MOVWF  46
32C4:  MOVLW  80
32C6:  MOVWF  45
32C8:  RCALL  3090
32CA:  BNZ   32D0
32CC:  MOVLW  0A
32CE:  MOVWF  34
.................... if(v==2.8){c=11;}  
32D0:  MOVFF  3D,44
32D4:  MOVFF  3C,43
32D8:  MOVFF  3B,42
32DC:  MOVFF  3A,41
32E0:  MOVLW  33
32E2:  MOVWF  48
32E4:  MOVWF  47
32E6:  MOVWF  46
32E8:  MOVLW  80
32EA:  MOVWF  45
32EC:  RCALL  3090
32EE:  BNZ   32F4
32F0:  MOVLW  0B
32F2:  MOVWF  34
.................... if(v==3.1){c=12;}       
32F4:  MOVFF  3D,44
32F8:  MOVFF  3C,43
32FC:  MOVFF  3B,42
3300:  MOVFF  3A,41
3304:  MOVLW  66
3306:  MOVWF  48
3308:  MOVWF  47
330A:  MOVLW  46
330C:  MOVWF  46
330E:  MOVLW  80
3310:  MOVWF  45
3312:  RCALL  3090
3314:  BNZ   331A
3316:  MOVLW  0C
3318:  MOVWF  34
.................... if(v==3.4){c=13;}             
331A:  MOVFF  3D,44
331E:  MOVFF  3C,43
3322:  MOVFF  3B,42
3326:  MOVFF  3A,41
332A:  MOVLW  9A
332C:  MOVWF  48
332E:  MOVLW  99
3330:  MOVWF  47
3332:  MOVLW  59
3334:  MOVWF  46
3336:  MOVLW  80
3338:  MOVWF  45
333A:  RCALL  3090
333C:  BNZ   3342
333E:  MOVLW  0D
3340:  MOVWF  34
.................... if(v==3.7){c=14;}         
3342:  MOVFF  3D,44
3346:  MOVFF  3C,43
334A:  MOVFF  3B,42
334E:  MOVFF  3A,41
3352:  MOVLW  CD
3354:  MOVWF  48
3356:  MOVLW  CC
3358:  MOVWF  47
335A:  MOVLW  6C
335C:  MOVWF  46
335E:  MOVLW  80
3360:  MOVWF  45
3362:  RCALL  3090
3364:  BNZ   336A
3366:  MOVLW  0E
3368:  MOVWF  34
.................... if(v==4){c=15;}       
336A:  MOVFF  3D,44
336E:  MOVFF  3C,43
3372:  MOVFF  3B,42
3376:  MOVFF  3A,41
337A:  CLRF   48
337C:  CLRF   47
337E:  CLRF   46
3380:  MOVLW  81
3382:  MOVWF  45
3384:  RCALL  3090
3386:  BNZ   338C
3388:  MOVLW  0F
338A:  MOVWF  34
.................... if(v==4.4){c=16;} 
338C:  MOVFF  3D,44
3390:  MOVFF  3C,43
3394:  MOVFF  3B,42
3398:  MOVFF  3A,41
339C:  MOVLW  CD
339E:  MOVWF  48
33A0:  MOVLW  CC
33A2:  MOVWF  47
33A4:  MOVLW  0C
33A6:  MOVWF  46
33A8:  MOVLW  81
33AA:  MOVWF  45
33AC:  RCALL  3090
33AE:  BNZ   33B4
33B0:  MOVLW  10
33B2:  MOVWF  34
.................... if(v==4.7){c=17;} 
33B4:  MOVFF  3D,44
33B8:  MOVFF  3C,43
33BC:  MOVFF  3B,42
33C0:  MOVFF  3A,41
33C4:  MOVLW  66
33C6:  MOVWF  48
33C8:  MOVWF  47
33CA:  MOVLW  16
33CC:  MOVWF  46
33CE:  MOVLW  81
33D0:  MOVWF  45
33D2:  RCALL  3090
33D4:  BNZ   33DA
33D6:  MOVLW  11
33D8:  MOVWF  34
.................... if(v==4.8){c=17;} 
33DA:  MOVFF  3D,44
33DE:  MOVFF  3C,43
33E2:  MOVFF  3B,42
33E6:  MOVFF  3A,41
33EA:  MOVLW  9A
33EC:  MOVWF  48
33EE:  MOVLW  99
33F0:  MOVWF  47
33F2:  MOVLW  19
33F4:  MOVWF  46
33F6:  MOVLW  81
33F8:  MOVWF  45
33FA:  RCALL  3090
33FC:  BNZ   3402
33FE:  MOVLW  11
3400:  MOVWF  34
.................... if(v==5.2){c=18;}       
3402:  MOVFF  3D,44
3406:  MOVFF  3C,43
340A:  MOVFF  3B,42
340E:  MOVFF  3A,41
3412:  MOVLW  66
3414:  MOVWF  48
3416:  MOVWF  47
3418:  MOVLW  26
341A:  MOVWF  46
341C:  MOVLW  81
341E:  MOVWF  45
3420:  RCALL  3090
3422:  BNZ   3428
3424:  MOVLW  12
3426:  MOVWF  34
.................... if(v==5.7){c=19;}       
3428:  MOVFF  3D,44
342C:  MOVFF  3C,43
3430:  MOVFF  3B,42
3434:  MOVFF  3A,41
3438:  MOVLW  66
343A:  MOVWF  48
343C:  MOVWF  47
343E:  MOVLW  36
3440:  MOVWF  46
3442:  MOVLW  81
3444:  MOVWF  45
3446:  RCALL  3090
3448:  BNZ   344E
344A:  MOVLW  13
344C:  MOVWF  34
.................... if(v==6.3){c=20;}       
344E:  MOVFF  3D,44
3452:  MOVFF  3C,43
3456:  MOVFF  3B,42
345A:  MOVFF  3A,41
345E:  MOVLW  9A
3460:  MOVWF  48
3462:  MOVLW  99
3464:  MOVWF  47
3466:  MOVLW  49
3468:  MOVWF  46
346A:  MOVLW  81
346C:  MOVWF  45
346E:  RCALL  3090
3470:  BNZ   3476
3472:  MOVLW  14
3474:  MOVWF  34
.................... if(v==6.9){c=21;}       
3476:  MOVFF  3D,44
347A:  MOVFF  3C,43
347E:  MOVFF  3B,42
3482:  MOVFF  3A,41
3486:  MOVLW  CD
3488:  MOVWF  48
348A:  MOVLW  CC
348C:  MOVWF  47
348E:  MOVLW  5C
3490:  MOVWF  46
3492:  MOVLW  81
3494:  MOVWF  45
3496:  RCALL  3090
3498:  BNZ   349E
349A:  MOVLW  15
349C:  MOVWF  34
.................... if(v==7.6){c=22;}       
349E:  MOVFF  3D,44
34A2:  MOVFF  3C,43
34A6:  MOVFF  3B,42
34AA:  MOVFF  3A,41
34AE:  MOVLW  33
34B0:  MOVWF  48
34B2:  MOVWF  47
34B4:  MOVLW  73
34B6:  MOVWF  46
34B8:  MOVLW  81
34BA:  MOVWF  45
34BC:  RCALL  3090
34BE:  BNZ   34C4
34C0:  MOVLW  16
34C2:  MOVWF  34
.................... if(v==8.3){c=23;}       
34C4:  MOVFF  3D,44
34C8:  MOVFF  3C,43
34CC:  MOVFF  3B,42
34D0:  MOVFF  3A,41
34D4:  MOVLW  CD
34D6:  MOVWF  48
34D8:  MOVLW  CC
34DA:  MOVWF  47
34DC:  MOVLW  04
34DE:  MOVWF  46
34E0:  MOVLW  82
34E2:  MOVWF  45
34E4:  RCALL  3090
34E6:  BNZ   34EC
34E8:  MOVLW  17
34EA:  MOVWF  34
.................... if(v==9.2){c=24;}       
34EC:  MOVFF  3D,44
34F0:  MOVFF  3C,43
34F4:  MOVFF  3B,42
34F8:  MOVFF  3A,41
34FC:  MOVLW  33
34FE:  MOVWF  48
3500:  MOVWF  47
3502:  MOVLW  13
3504:  MOVWF  46
3506:  MOVLW  82
3508:  MOVWF  45
350A:  RCALL  3090
350C:  BNZ   3512
350E:  MOVLW  18
3510:  MOVWF  34
.................... if(v==10.1){c=25;}     
3512:  MOVFF  3D,44
3516:  MOVFF  3C,43
351A:  MOVFF  3B,42
351E:  MOVFF  3A,41
3522:  MOVLW  9A
3524:  MOVWF  48
3526:  MOVLW  99
3528:  MOVWF  47
352A:  MOVLW  21
352C:  MOVWF  46
352E:  MOVLW  82
3530:  MOVWF  45
3532:  RCALL  3090
3534:  BNZ   353A
3536:  MOVLW  19
3538:  MOVWF  34
.................... if(v==11.1){c=26;}       
353A:  MOVFF  3D,44
353E:  MOVFF  3C,43
3542:  MOVFF  3B,42
3546:  MOVFF  3A,41
354A:  MOVLW  9A
354C:  MOVWF  48
354E:  MOVLW  99
3550:  MOVWF  47
3552:  MOVLW  31
3554:  MOVWF  46
3556:  MOVLW  82
3558:  MOVWF  45
355A:  RCALL  3090
355C:  BNZ   3562
355E:  MOVLW  1A
3560:  MOVWF  34
.................... if(v==12.1){c=27;}       
3562:  MOVFF  3D,44
3566:  MOVFF  3C,43
356A:  MOVFF  3B,42
356E:  MOVFF  3A,41
3572:  MOVLW  9A
3574:  MOVWF  48
3576:  MOVLW  99
3578:  MOVWF  47
357A:  MOVLW  41
357C:  MOVWF  46
357E:  MOVLW  82
3580:  MOVWF  45
3582:  RCALL  3090
3584:  BNZ   358A
3586:  MOVLW  1B
3588:  MOVWF  34
.................... if(v==13.1){c=28;}       
358A:  MOVFF  3D,44
358E:  MOVFF  3C,43
3592:  MOVFF  3B,42
3596:  MOVFF  3A,41
359A:  MOVLW  9A
359C:  MOVWF  48
359E:  MOVLW  99
35A0:  MOVWF  47
35A2:  MOVLW  51
35A4:  MOVWF  46
35A6:  MOVLW  82
35A8:  MOVWF  45
35AA:  RCALL  3090
35AC:  BNZ   35B2
35AE:  MOVLW  1C
35B0:  MOVWF  34
.................... if(v==15.1){c=29;}       
35B2:  MOVFF  3D,44
35B6:  MOVFF  3C,43
35BA:  MOVFF  3B,42
35BE:  MOVFF  3A,41
35C2:  MOVLW  9A
35C4:  MOVWF  48
35C6:  MOVLW  99
35C8:  MOVWF  47
35CA:  MOVLW  71
35CC:  MOVWF  46
35CE:  MOVLW  82
35D0:  MOVWF  45
35D2:  RCALL  3090
35D4:  BNZ   35DA
35D6:  MOVLW  1D
35D8:  MOVWF  34
.................... if(v==16.1){c=30;}       
35DA:  MOVFF  3D,44
35DE:  MOVFF  3C,43
35E2:  MOVFF  3B,42
35E6:  MOVFF  3A,41
35EA:  MOVLW  CD
35EC:  MOVWF  48
35EE:  MOVLW  CC
35F0:  MOVWF  47
35F2:  CLRF   46
35F4:  MOVLW  83
35F6:  MOVWF  45
35F8:  RCALL  3090
35FA:  BNZ   3600
35FC:  MOVLW  1E
35FE:  MOVWF  34
.................... if(v==18.1){c=31;}       
3600:  MOVFF  3D,44
3604:  MOVFF  3C,43
3608:  MOVFF  3B,42
360C:  MOVFF  3A,41
3610:  MOVLW  CD
3612:  MOVWF  48
3614:  MOVLW  CC
3616:  MOVWF  47
3618:  MOVLW  10
361A:  MOVWF  46
361C:  MOVLW  83
361E:  MOVWF  45
3620:  RCALL  3090
3622:  BNZ   3628
3624:  MOVLW  1F
3626:  MOVWF  34
.................... if(v==20.1){c=32;}       
3628:  MOVFF  3D,44
362C:  MOVFF  3C,43
3630:  MOVFF  3B,42
3634:  MOVFF  3A,41
3638:  MOVLW  CD
363A:  MOVWF  48
363C:  MOVLW  CC
363E:  MOVWF  47
3640:  MOVLW  20
3642:  MOVWF  46
3644:  MOVLW  83
3646:  MOVWF  45
3648:  RCALL  3090
364A:  BNZ   3650
364C:  MOVLW  20
364E:  MOVWF  34
.................... if(v==22.1){c=33;}       
3650:  MOVFF  3D,44
3654:  MOVFF  3C,43
3658:  MOVFF  3B,42
365C:  MOVFF  3A,41
3660:  MOVLW  CD
3662:  MOVWF  48
3664:  MOVLW  CC
3666:  MOVWF  47
3668:  MOVLW  30
366A:  MOVWF  46
366C:  MOVLW  83
366E:  MOVWF  45
3670:  RCALL  3090
3672:  BNZ   3678
3674:  MOVLW  21
3676:  MOVWF  34
.................... if(v==24.1){c=34;}       
3678:  MOVFF  3D,44
367C:  MOVFF  3C,43
3680:  MOVFF  3B,42
3684:  MOVFF  3A,41
3688:  MOVLW  CD
368A:  MOVWF  48
368C:  MOVLW  CC
368E:  MOVWF  47
3690:  MOVLW  40
3692:  MOVWF  46
3694:  MOVLW  83
3696:  MOVWF  45
3698:  RCALL  3090
369A:  BNZ   36A0
369C:  MOVLW  22
369E:  MOVWF  34
.................... if(v==27.1){c=35;}       
36A0:  MOVFF  3D,44
36A4:  MOVFF  3C,43
36A8:  MOVFF  3B,42
36AC:  MOVFF  3A,41
36B0:  MOVLW  CD
36B2:  MOVWF  48
36B4:  MOVLW  CC
36B6:  MOVWF  47
36B8:  MOVLW  58
36BA:  MOVWF  46
36BC:  MOVLW  83
36BE:  MOVWF  45
36C0:  RCALL  3090
36C2:  BNZ   36C8
36C4:  MOVLW  23
36C6:  MOVWF  34
.................... if(v==30.1){c=36;}       
36C8:  MOVFF  3D,44
36CC:  MOVFF  3C,43
36D0:  MOVFF  3B,42
36D4:  MOVFF  3A,41
36D8:  MOVLW  CD
36DA:  MOVWF  48
36DC:  MOVLW  CC
36DE:  MOVWF  47
36E0:  MOVLW  70
36E2:  MOVWF  46
36E4:  MOVLW  83
36E6:  MOVWF  45
36E8:  RCALL  3090
36EA:  BNZ   36F0
36EC:  MOVLW  24
36EE:  MOVWF  34
.................... if(v==33.1){c=37;}       
36F0:  MOVFF  3D,44
36F4:  MOVFF  3C,43
36F8:  MOVFF  3B,42
36FC:  MOVFF  3A,41
3700:  MOVLW  66
3702:  MOVWF  48
3704:  MOVWF  47
3706:  MOVLW  04
3708:  MOVWF  46
370A:  MOVLW  84
370C:  MOVWF  45
370E:  RCALL  3090
3710:  BNZ   3716
3712:  MOVLW  25
3714:  MOVWF  34
.................... if(v==36.1){c=38;}       
3716:  MOVFF  3D,44
371A:  MOVFF  3C,43
371E:  MOVFF  3B,42
3722:  MOVFF  3A,41
3726:  MOVLW  66
3728:  MOVWF  48
372A:  MOVWF  47
372C:  MOVLW  10
372E:  MOVWF  46
3730:  MOVLW  84
3732:  MOVWF  45
3734:  RCALL  3090
3736:  BNZ   373C
3738:  MOVLW  26
373A:  MOVWF  34
.................... if(v==39.1){c=39;}       
373C:  MOVFF  3D,44
3740:  MOVFF  3C,43
3744:  MOVFF  3B,42
3748:  MOVFF  3A,41
374C:  MOVLW  66
374E:  MOVWF  48
3750:  MOVWF  47
3752:  MOVLW  1C
3754:  MOVWF  46
3756:  MOVLW  84
3758:  MOVWF  45
375A:  RCALL  3090
375C:  BNZ   3762
375E:  MOVLW  27
3760:  MOVWF  34
.................... if(v==43.1){c=40;}       
3762:  MOVFF  3D,44
3766:  MOVFF  3C,43
376A:  MOVFF  3B,42
376E:  MOVFF  3A,41
3772:  MOVLW  66
3774:  MOVWF  48
3776:  MOVWF  47
3778:  MOVLW  2C
377A:  MOVWF  46
377C:  MOVLW  84
377E:  MOVWF  45
3780:  RCALL  3090
3782:  BNZ   3788
3784:  MOVLW  28
3786:  MOVWF  34
.................... if(v==47.1){c=41;}       
3788:  MOVFF  3D,44
378C:  MOVFF  3C,43
3790:  MOVFF  3B,42
3794:  MOVFF  3A,41
3798:  MOVLW  66
379A:  MOVWF  48
379C:  MOVWF  47
379E:  MOVLW  3C
37A0:  MOVWF  46
37A2:  MOVLW  84
37A4:  MOVWF  45
37A6:  RCALL  3090
37A8:  BNZ   37AE
37AA:  MOVLW  29
37AC:  MOVWF  34
.................... if(v==51.1){c=42;}      
37AE:  MOVFF  3D,44
37B2:  MOVFF  3C,43
37B6:  MOVFF  3B,42
37BA:  MOVFF  3A,41
37BE:  MOVLW  66
37C0:  MOVWF  48
37C2:  MOVWF  47
37C4:  MOVLW  4C
37C6:  MOVWF  46
37C8:  MOVLW  84
37CA:  MOVWF  45
37CC:  RCALL  3090
37CE:  BNZ   37D4
37D0:  MOVLW  2A
37D2:  MOVWF  34
.................... if(v==56.1){c=43;}       
37D4:  MOVFF  3D,44
37D8:  MOVFF  3C,43
37DC:  MOVFF  3B,42
37E0:  MOVFF  3A,41
37E4:  MOVLW  66
37E6:  MOVWF  48
37E8:  MOVWF  47
37EA:  MOVLW  60
37EC:  MOVWF  46
37EE:  MOVLW  84
37F0:  MOVWF  45
37F2:  RCALL  3090
37F4:  BNZ   37FA
37F6:  MOVLW  2B
37F8:  MOVWF  34
.................... if(v==62.1){c=44;}       
37FA:  MOVFF  3D,44
37FE:  MOVFF  3C,43
3802:  MOVFF  3B,42
3806:  MOVFF  3A,41
380A:  MOVLW  66
380C:  MOVWF  48
380E:  MOVWF  47
3810:  MOVLW  78
3812:  MOVWF  46
3814:  MOVLW  84
3816:  MOVWF  45
3818:  RCALL  3090
381A:  BNZ   3820
381C:  MOVLW  2C
381E:  MOVWF  34
.................... if(v==68.1){c=45;}       
3820:  MOVFF  3D,44
3824:  MOVFF  3C,43
3828:  MOVFF  3B,42
382C:  MOVFF  3A,41
3830:  MOVLW  33
3832:  MOVWF  48
3834:  MOVWF  47
3836:  MOVLW  08
3838:  MOVWF  46
383A:  MOVLW  85
383C:  MOVWF  45
383E:  RCALL  3090
3840:  BNZ   3846
3842:  MOVLW  2D
3844:  MOVWF  34
.................... if(v==75.1){c=46;}       
3846:  MOVFF  3D,44
384A:  MOVFF  3C,43
384E:  MOVFF  3B,42
3852:  MOVFF  3A,41
3856:  MOVLW  33
3858:  MOVWF  48
385A:  MOVWF  47
385C:  MOVLW  16
385E:  MOVWF  46
3860:  MOVLW  85
3862:  MOVWF  45
3864:  RCALL  3090
3866:  BNZ   386C
3868:  MOVLW  2E
386A:  MOVWF  34
.................... if(v==82.1){c=47;}       
386C:  MOVFF  3D,44
3870:  MOVFF  3C,43
3874:  MOVFF  3B,42
3878:  MOVFF  3A,41
387C:  MOVLW  33
387E:  MOVWF  48
3880:  MOVWF  47
3882:  MOVLW  24
3884:  MOVWF  46
3886:  MOVLW  85
3888:  MOVWF  45
388A:  RCALL  3090
388C:  BNZ   3892
388E:  MOVLW  2F
3890:  MOVWF  34
.................... if(v==91.1){c=48;}      
3892:  MOVFF  3D,44
3896:  MOVFF  3C,43
389A:  MOVFF  3B,42
389E:  MOVFF  3A,41
38A2:  MOVLW  33
38A4:  MOVWF  48
38A6:  MOVWF  47
38A8:  MOVLW  36
38AA:  MOVWF  46
38AC:  MOVLW  85
38AE:  MOVWF  45
38B0:  CALL   3090
38B4:  BNZ   38BA
38B6:  MOVLW  30
38B8:  MOVWF  34
.................... if(v==100.1){c=49;}            
38BA:  MOVFF  3D,44
38BE:  MOVFF  3C,43
38C2:  MOVFF  3B,42
38C6:  MOVFF  3A,41
38CA:  MOVLW  33
38CC:  MOVWF  48
38CE:  MOVWF  47
38D0:  MOVLW  48
38D2:  MOVWF  46
38D4:  MOVLW  85
38D6:  MOVWF  45
38D8:  CALL   3090
38DC:  BNZ   38E2
38DE:  MOVLW  31
38E0:  MOVWF  34
.................... if(v==110.1){c=50;}       
38E2:  MOVFF  3D,44
38E6:  MOVFF  3C,43
38EA:  MOVFF  3B,42
38EE:  MOVFF  3A,41
38F2:  MOVLW  33
38F4:  MOVWF  48
38F6:  MOVWF  47
38F8:  MOVLW  5C
38FA:  MOVWF  46
38FC:  MOVLW  85
38FE:  MOVWF  45
3900:  CALL   3090
3904:  BNZ   390A
3906:  MOVLW  32
3908:  MOVWF  34
.................... if(v==120.1){c=51;}       
390A:  MOVFF  3D,44
390E:  MOVFF  3C,43
3912:  MOVFF  3B,42
3916:  MOVFF  3A,41
391A:  MOVLW  33
391C:  MOVWF  48
391E:  MOVWF  47
3920:  MOVLW  70
3922:  MOVWF  46
3924:  MOVLW  85
3926:  MOVWF  45
3928:  CALL   3090
392C:  BNZ   3932
392E:  MOVLW  33
3930:  MOVWF  34
.................... if(v==130.1){c=52;}       
3932:  MOVFF  3D,44
3936:  MOVFF  3C,43
393A:  MOVFF  3B,42
393E:  MOVFF  3A,41
3942:  MOVLW  9A
3944:  MOVWF  48
3946:  MOVLW  19
3948:  MOVWF  47
394A:  MOVLW  02
394C:  MOVWF  46
394E:  MOVLW  86
3950:  MOVWF  45
3952:  CALL   3090
3956:  BNZ   395C
3958:  MOVLW  34
395A:  MOVWF  34
.................... if(v==150.1){c=53;}       
395C:  MOVFF  3D,44
3960:  MOVFF  3C,43
3964:  MOVFF  3B,42
3968:  MOVFF  3A,41
396C:  MOVLW  9A
396E:  MOVWF  48
3970:  MOVLW  19
3972:  MOVWF  47
3974:  MOVLW  16
3976:  MOVWF  46
3978:  MOVLW  86
397A:  MOVWF  45
397C:  CALL   3090
3980:  BNZ   3986
3982:  MOVLW  35
3984:  MOVWF  34
.................... if(v==160.1){c=54;}      
3986:  MOVFF  3D,44
398A:  MOVFF  3C,43
398E:  MOVFF  3B,42
3992:  MOVFF  3A,41
3996:  MOVLW  9A
3998:  MOVWF  48
399A:  MOVLW  19
399C:  MOVWF  47
399E:  MOVLW  20
39A0:  MOVWF  46
39A2:  MOVLW  86
39A4:  MOVWF  45
39A6:  CALL   3090
39AA:  BNZ   39B0
39AC:  MOVLW  36
39AE:  MOVWF  34
.................... if(v==180.1){c=55;}       
39B0:  MOVFF  3D,44
39B4:  MOVFF  3C,43
39B8:  MOVFF  3B,42
39BC:  MOVFF  3A,41
39C0:  MOVLW  9A
39C2:  MOVWF  48
39C4:  MOVLW  19
39C6:  MOVWF  47
39C8:  MOVLW  34
39CA:  MOVWF  46
39CC:  MOVLW  86
39CE:  MOVWF  45
39D0:  CALL   3090
39D4:  BNZ   39DA
39D6:  MOVLW  37
39D8:  MOVWF  34
.................... if(v==200.1){c=56;}       
39DA:  MOVFF  3D,44
39DE:  MOVFF  3C,43
39E2:  MOVFF  3B,42
39E6:  MOVFF  3A,41
39EA:  MOVLW  9A
39EC:  MOVWF  48
39EE:  MOVLW  19
39F0:  MOVWF  47
39F2:  MOVLW  48
39F4:  MOVWF  46
39F6:  MOVLW  86
39F8:  MOVWF  45
39FA:  CALL   3090
39FE:  BNZ   3A04
3A00:  MOVLW  38
3A02:  MOVWF  34
.................... if(v==220.1){c=57;}       
3A04:  MOVFF  3D,44
3A08:  MOVFF  3C,43
3A0C:  MOVFF  3B,42
3A10:  MOVFF  3A,41
3A14:  MOVLW  9A
3A16:  MOVWF  48
3A18:  MOVLW  19
3A1A:  MOVWF  47
3A1C:  MOVLW  5C
3A1E:  MOVWF  46
3A20:  MOVLW  86
3A22:  MOVWF  45
3A24:  CALL   3090
3A28:  BNZ   3A2E
3A2A:  MOVLW  39
3A2C:  MOVWF  34
.................... if(v==240.1){c=58;}       
3A2E:  MOVFF  3D,44
3A32:  MOVFF  3C,43
3A36:  MOVFF  3B,42
3A3A:  MOVFF  3A,41
3A3E:  MOVLW  9A
3A40:  MOVWF  48
3A42:  MOVLW  19
3A44:  MOVWF  47
3A46:  MOVLW  70
3A48:  MOVWF  46
3A4A:  MOVLW  86
3A4C:  MOVWF  45
3A4E:  CALL   3090
3A52:  BNZ   3A58
3A54:  MOVLW  3A
3A56:  MOVWF  34
.................... if(v==270.1){c=59;}       
3A58:  MOVFF  3D,44
3A5C:  MOVFF  3C,43
3A60:  MOVFF  3B,42
3A64:  MOVFF  3A,41
3A68:  MOVLW  CD
3A6A:  MOVWF  48
3A6C:  MOVLW  0C
3A6E:  MOVWF  47
3A70:  MOVLW  07
3A72:  MOVWF  46
3A74:  MOVLW  87
3A76:  MOVWF  45
3A78:  CALL   3090
3A7C:  BNZ   3A82
3A7E:  MOVLW  3B
3A80:  MOVWF  34
.................... if(v==300.1){c=60;}       
3A82:  MOVFF  3D,44
3A86:  MOVFF  3C,43
3A8A:  MOVFF  3B,42
3A8E:  MOVFF  3A,41
3A92:  MOVLW  CD
3A94:  MOVWF  48
3A96:  MOVLW  0C
3A98:  MOVWF  47
3A9A:  MOVLW  16
3A9C:  MOVWF  46
3A9E:  MOVLW  87
3AA0:  MOVWF  45
3AA2:  CALL   3090
3AA6:  BNZ   3AAC
3AA8:  MOVLW  3C
3AAA:  MOVWF  34
.................... if(v==330.1){c=61;}       
3AAC:  MOVFF  3D,44
3AB0:  MOVFF  3C,43
3AB4:  MOVFF  3B,42
3AB8:  MOVFF  3A,41
3ABC:  MOVLW  CD
3ABE:  MOVWF  48
3AC0:  MOVLW  0C
3AC2:  MOVWF  47
3AC4:  MOVLW  25
3AC6:  MOVWF  46
3AC8:  MOVLW  87
3ACA:  MOVWF  45
3ACC:  CALL   3090
3AD0:  BNZ   3AD6
3AD2:  MOVLW  3D
3AD4:  MOVWF  34
.................... if(v==360.1){c=62;}      
3AD6:  MOVFF  3D,44
3ADA:  MOVFF  3C,43
3ADE:  MOVFF  3B,42
3AE2:  MOVFF  3A,41
3AE6:  MOVLW  CD
3AE8:  MOVWF  48
3AEA:  MOVLW  0C
3AEC:  MOVWF  47
3AEE:  MOVLW  34
3AF0:  MOVWF  46
3AF2:  MOVLW  87
3AF4:  MOVWF  45
3AF6:  CALL   3090
3AFA:  BNZ   3B00
3AFC:  MOVLW  3E
3AFE:  MOVWF  34
.................... if(v==390.1){c=63;}       
3B00:  MOVFF  3D,44
3B04:  MOVFF  3C,43
3B08:  MOVFF  3B,42
3B0C:  MOVFF  3A,41
3B10:  MOVLW  CD
3B12:  MOVWF  48
3B14:  MOVLW  0C
3B16:  MOVWF  47
3B18:  MOVLW  43
3B1A:  MOVWF  46
3B1C:  MOVLW  87
3B1E:  MOVWF  45
3B20:  CALL   3090
3B24:  BNZ   3B2A
3B26:  MOVLW  3F
3B28:  MOVWF  34
.................... if(v==430.1){c=64;}       
3B2A:  MOVFF  3D,44
3B2E:  MOVFF  3C,43
3B32:  MOVFF  3B,42
3B36:  MOVFF  3A,41
3B3A:  MOVLW  CD
3B3C:  MOVWF  48
3B3E:  MOVLW  0C
3B40:  MOVWF  47
3B42:  MOVLW  57
3B44:  MOVWF  46
3B46:  MOVLW  87
3B48:  MOVWF  45
3B4A:  CALL   3090
3B4E:  BNZ   3B54
3B50:  MOVLW  40
3B52:  MOVWF  34
.................... if(v==470.1){c=65;}       
3B54:  MOVFF  3D,44
3B58:  MOVFF  3C,43
3B5C:  MOVFF  3B,42
3B60:  MOVFF  3A,41
3B64:  MOVLW  CD
3B66:  MOVWF  48
3B68:  MOVLW  0C
3B6A:  MOVWF  47
3B6C:  MOVLW  6B
3B6E:  MOVWF  46
3B70:  MOVLW  87
3B72:  MOVWF  45
3B74:  CALL   3090
3B78:  BNZ   3B7E
3B7A:  MOVLW  41
3B7C:  MOVWF  34
.................... if(v==510.1){c=66;}       
3B7E:  MOVFF  3D,44
3B82:  MOVFF  3C,43
3B86:  MOVFF  3B,42
3B8A:  MOVFF  3A,41
3B8E:  MOVLW  CD
3B90:  MOVWF  48
3B92:  MOVLW  0C
3B94:  MOVWF  47
3B96:  MOVLW  7F
3B98:  MOVWF  46
3B9A:  MOVLW  87
3B9C:  MOVWF  45
3B9E:  CALL   3090
3BA2:  BNZ   3BA8
3BA4:  MOVLW  42
3BA6:  MOVWF  34
.................... if(v==560.1){c=67;}       
3BA8:  MOVFF  3D,44
3BAC:  MOVFF  3C,43
3BB0:  MOVFF  3B,42
3BB4:  MOVFF  3A,41
3BB8:  MOVLW  66
3BBA:  MOVWF  48
3BBC:  MOVLW  06
3BBE:  MOVWF  47
3BC0:  MOVLW  0C
3BC2:  MOVWF  46
3BC4:  MOVLW  88
3BC6:  MOVWF  45
3BC8:  CALL   3090
3BCC:  BNZ   3BD2
3BCE:  MOVLW  43
3BD0:  MOVWF  34
.................... if(v==620.1){c=68;}       
3BD2:  MOVFF  3D,44
3BD6:  MOVFF  3C,43
3BDA:  MOVFF  3B,42
3BDE:  MOVFF  3A,41
3BE2:  MOVLW  66
3BE4:  MOVWF  48
3BE6:  MOVLW  06
3BE8:  MOVWF  47
3BEA:  MOVLW  1B
3BEC:  MOVWF  46
3BEE:  MOVLW  88
3BF0:  MOVWF  45
3BF2:  CALL   3090
3BF6:  BNZ   3BFC
3BF8:  MOVLW  44
3BFA:  MOVWF  34
.................... if(v==680.1){c=69;}       
3BFC:  MOVFF  3D,44
3C00:  MOVFF  3C,43
3C04:  MOVFF  3B,42
3C08:  MOVFF  3A,41
3C0C:  MOVLW  66
3C0E:  MOVWF  48
3C10:  MOVLW  06
3C12:  MOVWF  47
3C14:  MOVLW  2A
3C16:  MOVWF  46
3C18:  MOVLW  88
3C1A:  MOVWF  45
3C1C:  CALL   3090
3C20:  BNZ   3C26
3C22:  MOVLW  45
3C24:  MOVWF  34
.................... if(v==750.1){c=70;}       
3C26:  MOVFF  3D,44
3C2A:  MOVFF  3C,43
3C2E:  MOVFF  3B,42
3C32:  MOVFF  3A,41
3C36:  MOVLW  66
3C38:  MOVWF  48
3C3A:  MOVLW  86
3C3C:  MOVWF  47
3C3E:  MOVLW  3B
3C40:  MOVWF  46
3C42:  MOVLW  88
3C44:  MOVWF  45
3C46:  CALL   3090
3C4A:  BNZ   3C50
3C4C:  MOVLW  46
3C4E:  MOVWF  34
.................... if(v==820.1){c=71;}       
3C50:  MOVFF  3D,44
3C54:  MOVFF  3C,43
3C58:  MOVFF  3B,42
3C5C:  MOVFF  3A,41
3C60:  MOVLW  66
3C62:  MOVWF  48
3C64:  MOVLW  06
3C66:  MOVWF  47
3C68:  MOVLW  4D
3C6A:  MOVWF  46
3C6C:  MOVLW  88
3C6E:  MOVWF  45
3C70:  CALL   3090
3C74:  BNZ   3C7A
3C76:  MOVLW  47
3C78:  MOVWF  34
.................... if(v==910.1){c=72;} } 
3C7A:  MOVFF  3D,44
3C7E:  MOVFF  3C,43
3C82:  MOVFF  3B,42
3C86:  MOVFF  3A,41
3C8A:  MOVLW  66
3C8C:  MOVWF  48
3C8E:  MOVLW  86
3C90:  MOVWF  47
3C92:  MOVLW  63
3C94:  MOVWF  46
3C96:  MOVLW  88
3C98:  MOVWF  45
3C9A:  CALL   3090
3C9E:  BNZ   3CA4
3CA0:  MOVLW  48
3CA2:  MOVWF  34
....................  
.................... /* 
.................... |-----------------------|       
.................... |                       | 
.................... |                       | 
.................... |                       | 
.................... |      K ohm            | 
.................... |                       | 
.................... |                       | 
.................... |                       | 
.................... |-----------------------|  */ 
....................  
.................... if(kohm==1 && mohm==0) //Flags que indicam que esta  a segunda faixa 
3CA4:  DECFSZ 3E,W
3CA6:  GOTO   4866
3CAA:  MOVF   3F,F
3CAC:  BTFSS  FD8.2
3CAE:  GOTO   4866
....................  
.................... { 
.................... if(v==1.1){c=73;}       
3CB2:  MOVFF  3D,44
3CB6:  MOVFF  3C,43
3CBA:  MOVFF  3B,42
3CBE:  MOVFF  3A,41
3CC2:  MOVLW  CD
3CC4:  MOVWF  48
3CC6:  MOVLW  CC
3CC8:  MOVWF  47
3CCA:  MOVLW  0C
3CCC:  MOVWF  46
3CCE:  MOVLW  7F
3CD0:  MOVWF  45
3CD2:  CALL   3090
3CD6:  BNZ   3CDC
3CD8:  MOVLW  49
3CDA:  MOVWF  34
.................... if(v==1.2){ c=74;}       
3CDC:  MOVFF  3D,44
3CE0:  MOVFF  3C,43
3CE4:  MOVFF  3B,42
3CE8:  MOVFF  3A,41
3CEC:  MOVLW  9A
3CEE:  MOVWF  48
3CF0:  MOVLW  99
3CF2:  MOVWF  47
3CF4:  MOVLW  19
3CF6:  MOVWF  46
3CF8:  MOVLW  7F
3CFA:  MOVWF  45
3CFC:  CALL   3090
3D00:  BNZ   3D06
3D02:  MOVLW  4A
3D04:  MOVWF  34
.................... if(v==1.3){ c=75;}       
3D06:  MOVFF  3D,44
3D0A:  MOVFF  3C,43
3D0E:  MOVFF  3B,42
3D12:  MOVFF  3A,41
3D16:  MOVLW  66
3D18:  MOVWF  48
3D1A:  MOVWF  47
3D1C:  MOVLW  26
3D1E:  MOVWF  46
3D20:  MOVLW  7F
3D22:  MOVWF  45
3D24:  CALL   3090
3D28:  BNZ   3D2E
3D2A:  MOVLW  4B
3D2C:  MOVWF  34
.................... if(v==1.4){ c=76;}       
3D2E:  MOVFF  3D,44
3D32:  MOVFF  3C,43
3D36:  MOVFF  3B,42
3D3A:  MOVFF  3A,41
3D3E:  MOVLW  33
3D40:  MOVWF  48
3D42:  MOVWF  47
3D44:  MOVWF  46
3D46:  MOVLW  7F
3D48:  MOVWF  45
3D4A:  CALL   3090
3D4E:  BNZ   3D54
3D50:  MOVLW  4C
3D52:  MOVWF  34
.................... if(v==1.6){c=77;}       
3D54:  MOVFF  3D,44
3D58:  MOVFF  3C,43
3D5C:  MOVFF  3B,42
3D60:  MOVFF  3A,41
3D64:  MOVLW  CD
3D66:  MOVWF  48
3D68:  MOVLW  CC
3D6A:  MOVWF  47
3D6C:  MOVLW  4C
3D6E:  MOVWF  46
3D70:  MOVLW  7F
3D72:  MOVWF  45
3D74:  CALL   3090
3D78:  BNZ   3D7E
3D7A:  MOVLW  4D
3D7C:  MOVWF  34
.................... if(v==1.7){c=78;}      
3D7E:  MOVFF  3D,44
3D82:  MOVFF  3C,43
3D86:  MOVFF  3B,42
3D8A:  MOVFF  3A,41
3D8E:  MOVLW  9A
3D90:  MOVWF  48
3D92:  MOVLW  99
3D94:  MOVWF  47
3D96:  MOVLW  59
3D98:  MOVWF  46
3D9A:  MOVLW  7F
3D9C:  MOVWF  45
3D9E:  CALL   3090
3DA2:  BNZ   3DA8
3DA4:  MOVLW  4E
3DA6:  MOVWF  34
.................... if(v==1.9){c=79;}       
3DA8:  MOVFF  3D,44
3DAC:  MOVFF  3C,43
3DB0:  MOVFF  3B,42
3DB4:  MOVFF  3A,41
3DB8:  MOVLW  33
3DBA:  MOVWF  48
3DBC:  MOVWF  47
3DBE:  MOVLW  73
3DC0:  MOVWF  46
3DC2:  MOVLW  7F
3DC4:  MOVWF  45
3DC6:  CALL   3090
3DCA:  BNZ   3DD0
3DCC:  MOVLW  4F
3DCE:  MOVWF  34
.................... if(v==2.1){c=80;}      
3DD0:  MOVFF  3D,44
3DD4:  MOVFF  3C,43
3DD8:  MOVFF  3B,42
3DDC:  MOVFF  3A,41
3DE0:  MOVLW  66
3DE2:  MOVWF  48
3DE4:  MOVWF  47
3DE6:  MOVLW  06
3DE8:  MOVWF  46
3DEA:  MOVLW  80
3DEC:  MOVWF  45
3DEE:  CALL   3090
3DF2:  BNZ   3DF8
3DF4:  MOVLW  50
3DF6:  MOVWF  34
.................... if(v==2.3){c=81;}             
3DF8:  MOVFF  3D,44
3DFC:  MOVFF  3C,43
3E00:  MOVFF  3B,42
3E04:  MOVFF  3A,41
3E08:  MOVLW  33
3E0A:  MOVWF  48
3E0C:  MOVWF  47
3E0E:  MOVLW  13
3E10:  MOVWF  46
3E12:  MOVLW  80
3E14:  MOVWF  45
3E16:  CALL   3090
3E1A:  BNZ   3E20
3E1C:  MOVLW  51
3E1E:  MOVWF  34
.................... if(v==2.5){c=82;}       
3E20:  MOVFF  3D,44
3E24:  MOVFF  3C,43
3E28:  MOVFF  3B,42
3E2C:  MOVFF  3A,41
3E30:  CLRF   48
3E32:  CLRF   47
3E34:  MOVLW  20
3E36:  MOVWF  46
3E38:  MOVLW  80
3E3A:  MOVWF  45
3E3C:  CALL   3090
3E40:  BNZ   3E46
3E42:  MOVLW  52
3E44:  MOVWF  34
.................... if(v==2.8){c=83;}       
3E46:  MOVFF  3D,44
3E4A:  MOVFF  3C,43
3E4E:  MOVFF  3B,42
3E52:  MOVFF  3A,41
3E56:  MOVLW  33
3E58:  MOVWF  48
3E5A:  MOVWF  47
3E5C:  MOVWF  46
3E5E:  MOVLW  80
3E60:  MOVWF  45
3E62:  CALL   3090
3E66:  BNZ   3E6C
3E68:  MOVLW  53
3E6A:  MOVWF  34
.................... if(v==3.1){c=84;}       
3E6C:  MOVFF  3D,44
3E70:  MOVFF  3C,43
3E74:  MOVFF  3B,42
3E78:  MOVFF  3A,41
3E7C:  MOVLW  66
3E7E:  MOVWF  48
3E80:  MOVWF  47
3E82:  MOVLW  46
3E84:  MOVWF  46
3E86:  MOVLW  80
3E88:  MOVWF  45
3E8A:  CALL   3090
3E8E:  BNZ   3E94
3E90:  MOVLW  54
3E92:  MOVWF  34
.................... if(v==3.4){c=85;}             
3E94:  MOVFF  3D,44
3E98:  MOVFF  3C,43
3E9C:  MOVFF  3B,42
3EA0:  MOVFF  3A,41
3EA4:  MOVLW  9A
3EA6:  MOVWF  48
3EA8:  MOVLW  99
3EAA:  MOVWF  47
3EAC:  MOVLW  59
3EAE:  MOVWF  46
3EB0:  MOVLW  80
3EB2:  MOVWF  45
3EB4:  CALL   3090
3EB8:  BNZ   3EBE
3EBA:  MOVLW  55
3EBC:  MOVWF  34
.................... if(v==3.7){c=86;}         
3EBE:  MOVFF  3D,44
3EC2:  MOVFF  3C,43
3EC6:  MOVFF  3B,42
3ECA:  MOVFF  3A,41
3ECE:  MOVLW  CD
3ED0:  MOVWF  48
3ED2:  MOVLW  CC
3ED4:  MOVWF  47
3ED6:  MOVLW  6C
3ED8:  MOVWF  46
3EDA:  MOVLW  80
3EDC:  MOVWF  45
3EDE:  CALL   3090
3EE2:  BNZ   3EE8
3EE4:  MOVLW  56
3EE6:  MOVWF  34
.................... if(v==4){c=87;}       
3EE8:  MOVFF  3D,44
3EEC:  MOVFF  3C,43
3EF0:  MOVFF  3B,42
3EF4:  MOVFF  3A,41
3EF8:  CLRF   48
3EFA:  CLRF   47
3EFC:  CLRF   46
3EFE:  MOVLW  81
3F00:  MOVWF  45
3F02:  CALL   3090
3F06:  BNZ   3F0C
3F08:  MOVLW  57
3F0A:  MOVWF  34
.................... if(v==4.4){c=88;} 
3F0C:  MOVFF  3D,44
3F10:  MOVFF  3C,43
3F14:  MOVFF  3B,42
3F18:  MOVFF  3A,41
3F1C:  MOVLW  CD
3F1E:  MOVWF  48
3F20:  MOVLW  CC
3F22:  MOVWF  47
3F24:  MOVLW  0C
3F26:  MOVWF  46
3F28:  MOVLW  81
3F2A:  MOVWF  45
3F2C:  CALL   3090
3F30:  BNZ   3F36
3F32:  MOVLW  58
3F34:  MOVWF  34
.................... if(v==4.7){c=89;} 
3F36:  MOVFF  3D,44
3F3A:  MOVFF  3C,43
3F3E:  MOVFF  3B,42
3F42:  MOVFF  3A,41
3F46:  MOVLW  66
3F48:  MOVWF  48
3F4A:  MOVWF  47
3F4C:  MOVLW  16
3F4E:  MOVWF  46
3F50:  MOVLW  81
3F52:  MOVWF  45
3F54:  CALL   3090
3F58:  BNZ   3F5E
3F5A:  MOVLW  59
3F5C:  MOVWF  34
.................... if(v==4.8){c=89;}       
3F5E:  MOVFF  3D,44
3F62:  MOVFF  3C,43
3F66:  MOVFF  3B,42
3F6A:  MOVFF  3A,41
3F6E:  MOVLW  9A
3F70:  MOVWF  48
3F72:  MOVLW  99
3F74:  MOVWF  47
3F76:  MOVLW  19
3F78:  MOVWF  46
3F7A:  MOVLW  81
3F7C:  MOVWF  45
3F7E:  CALL   3090
3F82:  BNZ   3F88
3F84:  MOVLW  59
3F86:  MOVWF  34
.................... if(v==5.2){c=90;}       
3F88:  MOVFF  3D,44
3F8C:  MOVFF  3C,43
3F90:  MOVFF  3B,42
3F94:  MOVFF  3A,41
3F98:  MOVLW  66
3F9A:  MOVWF  48
3F9C:  MOVWF  47
3F9E:  MOVLW  26
3FA0:  MOVWF  46
3FA2:  MOVLW  81
3FA4:  MOVWF  45
3FA6:  CALL   3090
3FAA:  BNZ   3FB0
3FAC:  MOVLW  5A
3FAE:  MOVWF  34
.................... if(v==5.7){c=91;}       
3FB0:  MOVFF  3D,44
3FB4:  MOVFF  3C,43
3FB8:  MOVFF  3B,42
3FBC:  MOVFF  3A,41
3FC0:  MOVLW  66
3FC2:  MOVWF  48
3FC4:  MOVWF  47
3FC6:  MOVLW  36
3FC8:  MOVWF  46
3FCA:  MOVLW  81
3FCC:  MOVWF  45
3FCE:  CALL   3090
3FD2:  BNZ   3FD8
3FD4:  MOVLW  5B
3FD6:  MOVWF  34
.................... if(v==6.3){c=92;}       
3FD8:  MOVFF  3D,44
3FDC:  MOVFF  3C,43
3FE0:  MOVFF  3B,42
3FE4:  MOVFF  3A,41
3FE8:  MOVLW  9A
3FEA:  MOVWF  48
3FEC:  MOVLW  99
3FEE:  MOVWF  47
3FF0:  MOVLW  49
3FF2:  MOVWF  46
3FF4:  MOVLW  81
3FF6:  MOVWF  45
3FF8:  CALL   3090
3FFC:  BNZ   4002
3FFE:  MOVLW  5C
4000:  MOVWF  34
.................... if(v==6.9){c=93;}       
4002:  MOVFF  3D,44
4006:  MOVFF  3C,43
400A:  MOVFF  3B,42
400E:  MOVFF  3A,41
4012:  MOVLW  CD
4014:  MOVWF  48
4016:  MOVLW  CC
4018:  MOVWF  47
401A:  MOVLW  5C
401C:  MOVWF  46
401E:  MOVLW  81
4020:  MOVWF  45
4022:  CALL   3090
4026:  BNZ   402C
4028:  MOVLW  5D
402A:  MOVWF  34
.................... if(v==7.6){c=94;}       
402C:  MOVFF  3D,44
4030:  MOVFF  3C,43
4034:  MOVFF  3B,42
4038:  MOVFF  3A,41
403C:  MOVLW  33
403E:  MOVWF  48
4040:  MOVWF  47
4042:  MOVLW  73
4044:  MOVWF  46
4046:  MOVLW  81
4048:  MOVWF  45
404A:  CALL   3090
404E:  BNZ   4054
4050:  MOVLW  5E
4052:  MOVWF  34
.................... if(v==8.3){c=95;}       
4054:  MOVFF  3D,44
4058:  MOVFF  3C,43
405C:  MOVFF  3B,42
4060:  MOVFF  3A,41
4064:  MOVLW  CD
4066:  MOVWF  48
4068:  MOVLW  CC
406A:  MOVWF  47
406C:  MOVLW  04
406E:  MOVWF  46
4070:  MOVLW  82
4072:  MOVWF  45
4074:  CALL   3090
4078:  BNZ   407E
407A:  MOVLW  5F
407C:  MOVWF  34
.................... if(v==9.2){c=96;}       
407E:  MOVFF  3D,44
4082:  MOVFF  3C,43
4086:  MOVFF  3B,42
408A:  MOVFF  3A,41
408E:  MOVLW  33
4090:  MOVWF  48
4092:  MOVWF  47
4094:  MOVLW  13
4096:  MOVWF  46
4098:  MOVLW  82
409A:  MOVWF  45
409C:  CALL   3090
40A0:  BNZ   40A6
40A2:  MOVLW  60
40A4:  MOVWF  34
.................... if(v==10.1){c=97;}       
40A6:  MOVFF  3D,44
40AA:  MOVFF  3C,43
40AE:  MOVFF  3B,42
40B2:  MOVFF  3A,41
40B6:  MOVLW  9A
40B8:  MOVWF  48
40BA:  MOVLW  99
40BC:  MOVWF  47
40BE:  MOVLW  21
40C0:  MOVWF  46
40C2:  MOVLW  82
40C4:  MOVWF  45
40C6:  CALL   3090
40CA:  BNZ   40D0
40CC:  MOVLW  61
40CE:  MOVWF  34
.................... if(v==11.1){c=98;}       
40D0:  MOVFF  3D,44
40D4:  MOVFF  3C,43
40D8:  MOVFF  3B,42
40DC:  MOVFF  3A,41
40E0:  MOVLW  9A
40E2:  MOVWF  48
40E4:  MOVLW  99
40E6:  MOVWF  47
40E8:  MOVLW  31
40EA:  MOVWF  46
40EC:  MOVLW  82
40EE:  MOVWF  45
40F0:  CALL   3090
40F4:  BNZ   40FA
40F6:  MOVLW  62
40F8:  MOVWF  34
.................... if(v==12.1){c=99;}       
40FA:  MOVFF  3D,44
40FE:  MOVFF  3C,43
4102:  MOVFF  3B,42
4106:  MOVFF  3A,41
410A:  MOVLW  9A
410C:  MOVWF  48
410E:  MOVLW  99
4110:  MOVWF  47
4112:  MOVLW  41
4114:  MOVWF  46
4116:  MOVLW  82
4118:  MOVWF  45
411A:  CALL   3090
411E:  BNZ   4124
4120:  MOVLW  63
4122:  MOVWF  34
.................... if(v==13.1){c=100;}       
4124:  MOVFF  3D,44
4128:  MOVFF  3C,43
412C:  MOVFF  3B,42
4130:  MOVFF  3A,41
4134:  MOVLW  9A
4136:  MOVWF  48
4138:  MOVLW  99
413A:  MOVWF  47
413C:  MOVLW  51
413E:  MOVWF  46
4140:  MOVLW  82
4142:  MOVWF  45
4144:  CALL   3090
4148:  BNZ   414E
414A:  MOVLW  64
414C:  MOVWF  34
.................... if(v==15.1){c=101;}       
414E:  MOVFF  3D,44
4152:  MOVFF  3C,43
4156:  MOVFF  3B,42
415A:  MOVFF  3A,41
415E:  MOVLW  9A
4160:  MOVWF  48
4162:  MOVLW  99
4164:  MOVWF  47
4166:  MOVLW  71
4168:  MOVWF  46
416A:  MOVLW  82
416C:  MOVWF  45
416E:  CALL   3090
4172:  BNZ   4178
4174:  MOVLW  65
4176:  MOVWF  34
.................... if(v==16.1){c=102;}       
4178:  MOVFF  3D,44
417C:  MOVFF  3C,43
4180:  MOVFF  3B,42
4184:  MOVFF  3A,41
4188:  MOVLW  CD
418A:  MOVWF  48
418C:  MOVLW  CC
418E:  MOVWF  47
4190:  CLRF   46
4192:  MOVLW  83
4194:  MOVWF  45
4196:  CALL   3090
419A:  BNZ   41A0
419C:  MOVLW  66
419E:  MOVWF  34
.................... if(v==18.1){c=103;} 
41A0:  MOVFF  3D,44
41A4:  MOVFF  3C,43
41A8:  MOVFF  3B,42
41AC:  MOVFF  3A,41
41B0:  MOVLW  CD
41B2:  MOVWF  48
41B4:  MOVLW  CC
41B6:  MOVWF  47
41B8:  MOVLW  10
41BA:  MOVWF  46
41BC:  MOVLW  83
41BE:  MOVWF  45
41C0:  CALL   3090
41C4:  BNZ   41CA
41C6:  MOVLW  67
41C8:  MOVWF  34
.................... if(v==20.1){c=104;}       
41CA:  MOVFF  3D,44
41CE:  MOVFF  3C,43
41D2:  MOVFF  3B,42
41D6:  MOVFF  3A,41
41DA:  MOVLW  CD
41DC:  MOVWF  48
41DE:  MOVLW  CC
41E0:  MOVWF  47
41E2:  MOVLW  20
41E4:  MOVWF  46
41E6:  MOVLW  83
41E8:  MOVWF  45
41EA:  CALL   3090
41EE:  BNZ   41F4
41F0:  MOVLW  68
41F2:  MOVWF  34
.................... if(v==22.1){c=105;}       
41F4:  MOVFF  3D,44
41F8:  MOVFF  3C,43
41FC:  MOVFF  3B,42
4200:  MOVFF  3A,41
4204:  MOVLW  CD
4206:  MOVWF  48
4208:  MOVLW  CC
420A:  MOVWF  47
420C:  MOVLW  30
420E:  MOVWF  46
4210:  MOVLW  83
4212:  MOVWF  45
4214:  CALL   3090
4218:  BNZ   421E
421A:  MOVLW  69
421C:  MOVWF  34
.................... if(v==24.1){c=106;}       
421E:  MOVFF  3D,44
4222:  MOVFF  3C,43
4226:  MOVFF  3B,42
422A:  MOVFF  3A,41
422E:  MOVLW  CD
4230:  MOVWF  48
4232:  MOVLW  CC
4234:  MOVWF  47
4236:  MOVLW  40
4238:  MOVWF  46
423A:  MOVLW  83
423C:  MOVWF  45
423E:  CALL   3090
4242:  BNZ   4248
4244:  MOVLW  6A
4246:  MOVWF  34
.................... if(v==27.1){c=107;}       
4248:  MOVFF  3D,44
424C:  MOVFF  3C,43
4250:  MOVFF  3B,42
4254:  MOVFF  3A,41
4258:  MOVLW  CD
425A:  MOVWF  48
425C:  MOVLW  CC
425E:  MOVWF  47
4260:  MOVLW  58
4262:  MOVWF  46
4264:  MOVLW  83
4266:  MOVWF  45
4268:  CALL   3090
426C:  BNZ   4272
426E:  MOVLW  6B
4270:  MOVWF  34
.................... if(v==30.1){c=108;}       
4272:  MOVFF  3D,44
4276:  MOVFF  3C,43
427A:  MOVFF  3B,42
427E:  MOVFF  3A,41
4282:  MOVLW  CD
4284:  MOVWF  48
4286:  MOVLW  CC
4288:  MOVWF  47
428A:  MOVLW  70
428C:  MOVWF  46
428E:  MOVLW  83
4290:  MOVWF  45
4292:  CALL   3090
4296:  BNZ   429C
4298:  MOVLW  6C
429A:  MOVWF  34
.................... if(v==33.1){c=109;}       
429C:  MOVFF  3D,44
42A0:  MOVFF  3C,43
42A4:  MOVFF  3B,42
42A8:  MOVFF  3A,41
42AC:  MOVLW  66
42AE:  MOVWF  48
42B0:  MOVWF  47
42B2:  MOVLW  04
42B4:  MOVWF  46
42B6:  MOVLW  84
42B8:  MOVWF  45
42BA:  CALL   3090
42BE:  BNZ   42C4
42C0:  MOVLW  6D
42C2:  MOVWF  34
.................... if(v==36.1){c=110;}       
42C4:  MOVFF  3D,44
42C8:  MOVFF  3C,43
42CC:  MOVFF  3B,42
42D0:  MOVFF  3A,41
42D4:  MOVLW  66
42D6:  MOVWF  48
42D8:  MOVWF  47
42DA:  MOVLW  10
42DC:  MOVWF  46
42DE:  MOVLW  84
42E0:  MOVWF  45
42E2:  CALL   3090
42E6:  BNZ   42EC
42E8:  MOVLW  6E
42EA:  MOVWF  34
.................... if(v==39.1){c=111;}       
42EC:  MOVFF  3D,44
42F0:  MOVFF  3C,43
42F4:  MOVFF  3B,42
42F8:  MOVFF  3A,41
42FC:  MOVLW  66
42FE:  MOVWF  48
4300:  MOVWF  47
4302:  MOVLW  1C
4304:  MOVWF  46
4306:  MOVLW  84
4308:  MOVWF  45
430A:  CALL   3090
430E:  BNZ   4314
4310:  MOVLW  6F
4312:  MOVWF  34
.................... if(v==43.1){c=112;}       
4314:  MOVFF  3D,44
4318:  MOVFF  3C,43
431C:  MOVFF  3B,42
4320:  MOVFF  3A,41
4324:  MOVLW  66
4326:  MOVWF  48
4328:  MOVWF  47
432A:  MOVLW  2C
432C:  MOVWF  46
432E:  MOVLW  84
4330:  MOVWF  45
4332:  CALL   3090
4336:  BNZ   433C
4338:  MOVLW  70
433A:  MOVWF  34
.................... if(v==47.1){c=113;}       
433C:  MOVFF  3D,44
4340:  MOVFF  3C,43
4344:  MOVFF  3B,42
4348:  MOVFF  3A,41
434C:  MOVLW  66
434E:  MOVWF  48
4350:  MOVWF  47
4352:  MOVLW  3C
4354:  MOVWF  46
4356:  MOVLW  84
4358:  MOVWF  45
435A:  CALL   3090
435E:  BNZ   4364
4360:  MOVLW  71
4362:  MOVWF  34
.................... if(v==51.1){c=114;}       
4364:  MOVFF  3D,44
4368:  MOVFF  3C,43
436C:  MOVFF  3B,42
4370:  MOVFF  3A,41
4374:  MOVLW  66
4376:  MOVWF  48
4378:  MOVWF  47
437A:  MOVLW  4C
437C:  MOVWF  46
437E:  MOVLW  84
4380:  MOVWF  45
4382:  CALL   3090
4386:  BNZ   438C
4388:  MOVLW  72
438A:  MOVWF  34
.................... if(v==56.1){c=115;}       
438C:  MOVFF  3D,44
4390:  MOVFF  3C,43
4394:  MOVFF  3B,42
4398:  MOVFF  3A,41
439C:  MOVLW  66
439E:  MOVWF  48
43A0:  MOVWF  47
43A2:  MOVLW  60
43A4:  MOVWF  46
43A6:  MOVLW  84
43A8:  MOVWF  45
43AA:  CALL   3090
43AE:  BNZ   43B4
43B0:  MOVLW  73
43B2:  MOVWF  34
.................... if(v==62.1){c=116;}       
43B4:  MOVFF  3D,44
43B8:  MOVFF  3C,43
43BC:  MOVFF  3B,42
43C0:  MOVFF  3A,41
43C4:  MOVLW  66
43C6:  MOVWF  48
43C8:  MOVWF  47
43CA:  MOVLW  78
43CC:  MOVWF  46
43CE:  MOVLW  84
43D0:  MOVWF  45
43D2:  CALL   3090
43D6:  BNZ   43DC
43D8:  MOVLW  74
43DA:  MOVWF  34
.................... if(v==68.1){c=117;}       
43DC:  MOVFF  3D,44
43E0:  MOVFF  3C,43
43E4:  MOVFF  3B,42
43E8:  MOVFF  3A,41
43EC:  MOVLW  33
43EE:  MOVWF  48
43F0:  MOVWF  47
43F2:  MOVLW  08
43F4:  MOVWF  46
43F6:  MOVLW  85
43F8:  MOVWF  45
43FA:  CALL   3090
43FE:  BNZ   4404
4400:  MOVLW  75
4402:  MOVWF  34
.................... if(v==75.1){c=118;}       
4404:  MOVFF  3D,44
4408:  MOVFF  3C,43
440C:  MOVFF  3B,42
4410:  MOVFF  3A,41
4414:  MOVLW  33
4416:  MOVWF  48
4418:  MOVWF  47
441A:  MOVLW  16
441C:  MOVWF  46
441E:  MOVLW  85
4420:  MOVWF  45
4422:  CALL   3090
4426:  BNZ   442C
4428:  MOVLW  76
442A:  MOVWF  34
.................... if(v==82.1){c=119;}       
442C:  MOVFF  3D,44
4430:  MOVFF  3C,43
4434:  MOVFF  3B,42
4438:  MOVFF  3A,41
443C:  MOVLW  33
443E:  MOVWF  48
4440:  MOVWF  47
4442:  MOVLW  24
4444:  MOVWF  46
4446:  MOVLW  85
4448:  MOVWF  45
444A:  CALL   3090
444E:  BNZ   4454
4450:  MOVLW  77
4452:  MOVWF  34
.................... if(v==91.1){c=120;}       
4454:  MOVFF  3D,44
4458:  MOVFF  3C,43
445C:  MOVFF  3B,42
4460:  MOVFF  3A,41
4464:  MOVLW  33
4466:  MOVWF  48
4468:  MOVWF  47
446A:  MOVLW  36
446C:  MOVWF  46
446E:  MOVLW  85
4470:  MOVWF  45
4472:  CALL   3090
4476:  BNZ   447C
4478:  MOVLW  78
447A:  MOVWF  34
.................... if(v==100.1){c=121;}             
447C:  MOVFF  3D,44
4480:  MOVFF  3C,43
4484:  MOVFF  3B,42
4488:  MOVFF  3A,41
448C:  MOVLW  33
448E:  MOVWF  48
4490:  MOVWF  47
4492:  MOVLW  48
4494:  MOVWF  46
4496:  MOVLW  85
4498:  MOVWF  45
449A:  CALL   3090
449E:  BNZ   44A4
44A0:  MOVLW  79
44A2:  MOVWF  34
.................... if(v==110.1){c=122;}       
44A4:  MOVFF  3D,44
44A8:  MOVFF  3C,43
44AC:  MOVFF  3B,42
44B0:  MOVFF  3A,41
44B4:  MOVLW  33
44B6:  MOVWF  48
44B8:  MOVWF  47
44BA:  MOVLW  5C
44BC:  MOVWF  46
44BE:  MOVLW  85
44C0:  MOVWF  45
44C2:  CALL   3090
44C6:  BNZ   44CC
44C8:  MOVLW  7A
44CA:  MOVWF  34
.................... if(v==120.1){c=123;}       
44CC:  MOVFF  3D,44
44D0:  MOVFF  3C,43
44D4:  MOVFF  3B,42
44D8:  MOVFF  3A,41
44DC:  MOVLW  33
44DE:  MOVWF  48
44E0:  MOVWF  47
44E2:  MOVLW  70
44E4:  MOVWF  46
44E6:  MOVLW  85
44E8:  MOVWF  45
44EA:  CALL   3090
44EE:  BNZ   44F4
44F0:  MOVLW  7B
44F2:  MOVWF  34
.................... if(v==130.1){c=124;}       
44F4:  MOVFF  3D,44
44F8:  MOVFF  3C,43
44FC:  MOVFF  3B,42
4500:  MOVFF  3A,41
4504:  MOVLW  9A
4506:  MOVWF  48
4508:  MOVLW  19
450A:  MOVWF  47
450C:  MOVLW  02
450E:  MOVWF  46
4510:  MOVLW  86
4512:  MOVWF  45
4514:  CALL   3090
4518:  BNZ   451E
451A:  MOVLW  7C
451C:  MOVWF  34
.................... if(v==150.1){c=125;}       
451E:  MOVFF  3D,44
4522:  MOVFF  3C,43
4526:  MOVFF  3B,42
452A:  MOVFF  3A,41
452E:  MOVLW  9A
4530:  MOVWF  48
4532:  MOVLW  19
4534:  MOVWF  47
4536:  MOVLW  16
4538:  MOVWF  46
453A:  MOVLW  86
453C:  MOVWF  45
453E:  CALL   3090
4542:  BNZ   4548
4544:  MOVLW  7D
4546:  MOVWF  34
.................... if(v==160.1){c=126;}       
4548:  MOVFF  3D,44
454C:  MOVFF  3C,43
4550:  MOVFF  3B,42
4554:  MOVFF  3A,41
4558:  MOVLW  9A
455A:  MOVWF  48
455C:  MOVLW  19
455E:  MOVWF  47
4560:  MOVLW  20
4562:  MOVWF  46
4564:  MOVLW  86
4566:  MOVWF  45
4568:  CALL   3090
456C:  BNZ   4572
456E:  MOVLW  7E
4570:  MOVWF  34
.................... if(v==180.1){c=127;}       
4572:  MOVFF  3D,44
4576:  MOVFF  3C,43
457A:  MOVFF  3B,42
457E:  MOVFF  3A,41
4582:  MOVLW  9A
4584:  MOVWF  48
4586:  MOVLW  19
4588:  MOVWF  47
458A:  MOVLW  34
458C:  MOVWF  46
458E:  MOVLW  86
4590:  MOVWF  45
4592:  CALL   3090
4596:  BNZ   459C
4598:  MOVLW  7F
459A:  MOVWF  34
.................... if(v==200.1){c=128;}       
459C:  MOVFF  3D,44
45A0:  MOVFF  3C,43
45A4:  MOVFF  3B,42
45A8:  MOVFF  3A,41
45AC:  MOVLW  9A
45AE:  MOVWF  48
45B0:  MOVLW  19
45B2:  MOVWF  47
45B4:  MOVLW  48
45B6:  MOVWF  46
45B8:  MOVLW  86
45BA:  MOVWF  45
45BC:  CALL   3090
45C0:  BNZ   45C6
45C2:  MOVLW  80
45C4:  MOVWF  34
.................... if(v==220.1){c=129;}       
45C6:  MOVFF  3D,44
45CA:  MOVFF  3C,43
45CE:  MOVFF  3B,42
45D2:  MOVFF  3A,41
45D6:  MOVLW  9A
45D8:  MOVWF  48
45DA:  MOVLW  19
45DC:  MOVWF  47
45DE:  MOVLW  5C
45E0:  MOVWF  46
45E2:  MOVLW  86
45E4:  MOVWF  45
45E6:  CALL   3090
45EA:  BNZ   45F0
45EC:  MOVLW  81
45EE:  MOVWF  34
.................... if(v==240.1){c=130;}       
45F0:  MOVFF  3D,44
45F4:  MOVFF  3C,43
45F8:  MOVFF  3B,42
45FC:  MOVFF  3A,41
4600:  MOVLW  9A
4602:  MOVWF  48
4604:  MOVLW  19
4606:  MOVWF  47
4608:  MOVLW  70
460A:  MOVWF  46
460C:  MOVLW  86
460E:  MOVWF  45
4610:  CALL   3090
4614:  BNZ   461A
4616:  MOVLW  82
4618:  MOVWF  34
.................... if(v==270.1){c=131;}     
461A:  MOVFF  3D,44
461E:  MOVFF  3C,43
4622:  MOVFF  3B,42
4626:  MOVFF  3A,41
462A:  MOVLW  CD
462C:  MOVWF  48
462E:  MOVLW  0C
4630:  MOVWF  47
4632:  MOVLW  07
4634:  MOVWF  46
4636:  MOVLW  87
4638:  MOVWF  45
463A:  CALL   3090
463E:  BNZ   4644
4640:  MOVLW  83
4642:  MOVWF  34
.................... if(v==300.1){c=132;}       
4644:  MOVFF  3D,44
4648:  MOVFF  3C,43
464C:  MOVFF  3B,42
4650:  MOVFF  3A,41
4654:  MOVLW  CD
4656:  MOVWF  48
4658:  MOVLW  0C
465A:  MOVWF  47
465C:  MOVLW  16
465E:  MOVWF  46
4660:  MOVLW  87
4662:  MOVWF  45
4664:  CALL   3090
4668:  BNZ   466E
466A:  MOVLW  84
466C:  MOVWF  34
.................... if(v==330.1){c=133;}       
466E:  MOVFF  3D,44
4672:  MOVFF  3C,43
4676:  MOVFF  3B,42
467A:  MOVFF  3A,41
467E:  MOVLW  CD
4680:  MOVWF  48
4682:  MOVLW  0C
4684:  MOVWF  47
4686:  MOVLW  25
4688:  MOVWF  46
468A:  MOVLW  87
468C:  MOVWF  45
468E:  CALL   3090
4692:  BNZ   4698
4694:  MOVLW  85
4696:  MOVWF  34
.................... if(v==360.1){c=134;}       
4698:  MOVFF  3D,44
469C:  MOVFF  3C,43
46A0:  MOVFF  3B,42
46A4:  MOVFF  3A,41
46A8:  MOVLW  CD
46AA:  MOVWF  48
46AC:  MOVLW  0C
46AE:  MOVWF  47
46B0:  MOVLW  34
46B2:  MOVWF  46
46B4:  MOVLW  87
46B6:  MOVWF  45
46B8:  CALL   3090
46BC:  BNZ   46C2
46BE:  MOVLW  86
46C0:  MOVWF  34
.................... if(v==390.1){c=135;}       
46C2:  MOVFF  3D,44
46C6:  MOVFF  3C,43
46CA:  MOVFF  3B,42
46CE:  MOVFF  3A,41
46D2:  MOVLW  CD
46D4:  MOVWF  48
46D6:  MOVLW  0C
46D8:  MOVWF  47
46DA:  MOVLW  43
46DC:  MOVWF  46
46DE:  MOVLW  87
46E0:  MOVWF  45
46E2:  CALL   3090
46E6:  BNZ   46EC
46E8:  MOVLW  87
46EA:  MOVWF  34
.................... if(v==430.1){c=136;}      
46EC:  MOVFF  3D,44
46F0:  MOVFF  3C,43
46F4:  MOVFF  3B,42
46F8:  MOVFF  3A,41
46FC:  MOVLW  CD
46FE:  MOVWF  48
4700:  MOVLW  0C
4702:  MOVWF  47
4704:  MOVLW  57
4706:  MOVWF  46
4708:  MOVLW  87
470A:  MOVWF  45
470C:  CALL   3090
4710:  BNZ   4716
4712:  MOVLW  88
4714:  MOVWF  34
.................... if(v==470.1){c=137;}       
4716:  MOVFF  3D,44
471A:  MOVFF  3C,43
471E:  MOVFF  3B,42
4722:  MOVFF  3A,41
4726:  MOVLW  CD
4728:  MOVWF  48
472A:  MOVLW  0C
472C:  MOVWF  47
472E:  MOVLW  6B
4730:  MOVWF  46
4732:  MOVLW  87
4734:  MOVWF  45
4736:  CALL   3090
473A:  BNZ   4740
473C:  MOVLW  89
473E:  MOVWF  34
.................... if(v==510.1){c=138;}       
4740:  MOVFF  3D,44
4744:  MOVFF  3C,43
4748:  MOVFF  3B,42
474C:  MOVFF  3A,41
4750:  MOVLW  CD
4752:  MOVWF  48
4754:  MOVLW  0C
4756:  MOVWF  47
4758:  MOVLW  7F
475A:  MOVWF  46
475C:  MOVLW  87
475E:  MOVWF  45
4760:  CALL   3090
4764:  BNZ   476A
4766:  MOVLW  8A
4768:  MOVWF  34
.................... if(v==560.1){c=139;}       
476A:  MOVFF  3D,44
476E:  MOVFF  3C,43
4772:  MOVFF  3B,42
4776:  MOVFF  3A,41
477A:  MOVLW  66
477C:  MOVWF  48
477E:  MOVLW  06
4780:  MOVWF  47
4782:  MOVLW  0C
4784:  MOVWF  46
4786:  MOVLW  88
4788:  MOVWF  45
478A:  CALL   3090
478E:  BNZ   4794
4790:  MOVLW  8B
4792:  MOVWF  34
.................... if(v==620.1){c=140;}       
4794:  MOVFF  3D,44
4798:  MOVFF  3C,43
479C:  MOVFF  3B,42
47A0:  MOVFF  3A,41
47A4:  MOVLW  66
47A6:  MOVWF  48
47A8:  MOVLW  06
47AA:  MOVWF  47
47AC:  MOVLW  1B
47AE:  MOVWF  46
47B0:  MOVLW  88
47B2:  MOVWF  45
47B4:  CALL   3090
47B8:  BNZ   47BE
47BA:  MOVLW  8C
47BC:  MOVWF  34
.................... if(v==680.1){c=141;}       
47BE:  MOVFF  3D,44
47C2:  MOVFF  3C,43
47C6:  MOVFF  3B,42
47CA:  MOVFF  3A,41
47CE:  MOVLW  66
47D0:  MOVWF  48
47D2:  MOVLW  06
47D4:  MOVWF  47
47D6:  MOVLW  2A
47D8:  MOVWF  46
47DA:  MOVLW  88
47DC:  MOVWF  45
47DE:  CALL   3090
47E2:  BNZ   47E8
47E4:  MOVLW  8D
47E6:  MOVWF  34
.................... if(v==750.1){c=142;}       
47E8:  MOVFF  3D,44
47EC:  MOVFF  3C,43
47F0:  MOVFF  3B,42
47F4:  MOVFF  3A,41
47F8:  MOVLW  66
47FA:  MOVWF  48
47FC:  MOVLW  86
47FE:  MOVWF  47
4800:  MOVLW  3B
4802:  MOVWF  46
4804:  MOVLW  88
4806:  MOVWF  45
4808:  CALL   3090
480C:  BNZ   4812
480E:  MOVLW  8E
4810:  MOVWF  34
.................... if(v==820.1){c=143;}       
4812:  MOVFF  3D,44
4816:  MOVFF  3C,43
481A:  MOVFF  3B,42
481E:  MOVFF  3A,41
4822:  MOVLW  66
4824:  MOVWF  48
4826:  MOVLW  06
4828:  MOVWF  47
482A:  MOVLW  4D
482C:  MOVWF  46
482E:  MOVLW  88
4830:  MOVWF  45
4832:  CALL   3090
4836:  BNZ   483C
4838:  MOVLW  8F
483A:  MOVWF  34
.................... if(v==910.1){c=144;} 
483C:  MOVFF  3D,44
4840:  MOVFF  3C,43
4844:  MOVFF  3B,42
4848:  MOVFF  3A,41
484C:  MOVLW  66
484E:  MOVWF  48
4850:  MOVLW  86
4852:  MOVWF  47
4854:  MOVLW  63
4856:  MOVWF  46
4858:  MOVLW  88
485A:  MOVWF  45
485C:  CALL   3090
4860:  BNZ   4866
4862:  MOVLW  90
4864:  MOVWF  34
....................       } 
....................        
.................... /*       
.................... |-----------------------|       
.................... |                       | 
.................... |                       | 
.................... |                       | 
.................... |      M ohm            | 
.................... |                       | 
.................... |                       | 
.................... |                       | 
.................... |-----------------------|  */ 
....................  
.................... if(kohm==0 && mohm==1) //Flags que indicam que esta  a terceira faixa 
4866:  MOVF   3E,F
4868:  BTFSS  FD8.2
486A:  BRA    4DDC
486C:  DECFSZ 3F,W
486E:  BRA    4DDC
....................  
.................... { 
.................... if(v==1.1){c=145;}       
4870:  MOVFF  3D,44
4874:  MOVFF  3C,43
4878:  MOVFF  3B,42
487C:  MOVFF  3A,41
4880:  MOVLW  CD
4882:  MOVWF  48
4884:  MOVLW  CC
4886:  MOVWF  47
4888:  MOVLW  0C
488A:  MOVWF  46
488C:  MOVLW  7F
488E:  MOVWF  45
4890:  CALL   3090
4894:  BNZ   489A
4896:  MOVLW  91
4898:  MOVWF  34
.................... if(v==1.2){ c=146;}       
489A:  MOVFF  3D,44
489E:  MOVFF  3C,43
48A2:  MOVFF  3B,42
48A6:  MOVFF  3A,41
48AA:  MOVLW  9A
48AC:  MOVWF  48
48AE:  MOVLW  99
48B0:  MOVWF  47
48B2:  MOVLW  19
48B4:  MOVWF  46
48B6:  MOVLW  7F
48B8:  MOVWF  45
48BA:  CALL   3090
48BE:  BNZ   48C4
48C0:  MOVLW  92
48C2:  MOVWF  34
.................... if(v==1.3){ c=147;}       
48C4:  MOVFF  3D,44
48C8:  MOVFF  3C,43
48CC:  MOVFF  3B,42
48D0:  MOVFF  3A,41
48D4:  MOVLW  66
48D6:  MOVWF  48
48D8:  MOVWF  47
48DA:  MOVLW  26
48DC:  MOVWF  46
48DE:  MOVLW  7F
48E0:  MOVWF  45
48E2:  CALL   3090
48E6:  BNZ   48EC
48E8:  MOVLW  93
48EA:  MOVWF  34
.................... if(v==1.4){ c=148;}       
48EC:  MOVFF  3D,44
48F0:  MOVFF  3C,43
48F4:  MOVFF  3B,42
48F8:  MOVFF  3A,41
48FC:  MOVLW  33
48FE:  MOVWF  48
4900:  MOVWF  47
4902:  MOVWF  46
4904:  MOVLW  7F
4906:  MOVWF  45
4908:  CALL   3090
490C:  BNZ   4912
490E:  MOVLW  94
4910:  MOVWF  34
.................... if(v==1.6){c=149;}       
4912:  MOVFF  3D,44
4916:  MOVFF  3C,43
491A:  MOVFF  3B,42
491E:  MOVFF  3A,41
4922:  MOVLW  CD
4924:  MOVWF  48
4926:  MOVLW  CC
4928:  MOVWF  47
492A:  MOVLW  4C
492C:  MOVWF  46
492E:  MOVLW  7F
4930:  MOVWF  45
4932:  CALL   3090
4936:  BNZ   493C
4938:  MOVLW  95
493A:  MOVWF  34
.................... if(v==1.7){c=150;}       
493C:  MOVFF  3D,44
4940:  MOVFF  3C,43
4944:  MOVFF  3B,42
4948:  MOVFF  3A,41
494C:  MOVLW  9A
494E:  MOVWF  48
4950:  MOVLW  99
4952:  MOVWF  47
4954:  MOVLW  59
4956:  MOVWF  46
4958:  MOVLW  7F
495A:  MOVWF  45
495C:  CALL   3090
4960:  BNZ   4966
4962:  MOVLW  96
4964:  MOVWF  34
.................... if(v==1.9){c=151;}       
4966:  MOVFF  3D,44
496A:  MOVFF  3C,43
496E:  MOVFF  3B,42
4972:  MOVFF  3A,41
4976:  MOVLW  33
4978:  MOVWF  48
497A:  MOVWF  47
497C:  MOVLW  73
497E:  MOVWF  46
4980:  MOVLW  7F
4982:  MOVWF  45
4984:  CALL   3090
4988:  BNZ   498E
498A:  MOVLW  97
498C:  MOVWF  34
.................... if(v==2.1){c=152;}       
498E:  MOVFF  3D,44
4992:  MOVFF  3C,43
4996:  MOVFF  3B,42
499A:  MOVFF  3A,41
499E:  MOVLW  66
49A0:  MOVWF  48
49A2:  MOVWF  47
49A4:  MOVLW  06
49A6:  MOVWF  46
49A8:  MOVLW  80
49AA:  MOVWF  45
49AC:  CALL   3090
49B0:  BNZ   49B6
49B2:  MOVLW  98
49B4:  MOVWF  34
.................... if(v==2.3){c=153;}              
49B6:  MOVFF  3D,44
49BA:  MOVFF  3C,43
49BE:  MOVFF  3B,42
49C2:  MOVFF  3A,41
49C6:  MOVLW  33
49C8:  MOVWF  48
49CA:  MOVWF  47
49CC:  MOVLW  13
49CE:  MOVWF  46
49D0:  MOVLW  80
49D2:  MOVWF  45
49D4:  CALL   3090
49D8:  BNZ   49DE
49DA:  MOVLW  99
49DC:  MOVWF  34
.................... if(v==2.5){c=154;}       
49DE:  MOVFF  3D,44
49E2:  MOVFF  3C,43
49E6:  MOVFF  3B,42
49EA:  MOVFF  3A,41
49EE:  CLRF   48
49F0:  CLRF   47
49F2:  MOVLW  20
49F4:  MOVWF  46
49F6:  MOVLW  80
49F8:  MOVWF  45
49FA:  CALL   3090
49FE:  BNZ   4A04
4A00:  MOVLW  9A
4A02:  MOVWF  34
.................... if(v==2.8){c=155;}       
4A04:  MOVFF  3D,44
4A08:  MOVFF  3C,43
4A0C:  MOVFF  3B,42
4A10:  MOVFF  3A,41
4A14:  MOVLW  33
4A16:  MOVWF  48
4A18:  MOVWF  47
4A1A:  MOVWF  46
4A1C:  MOVLW  80
4A1E:  MOVWF  45
4A20:  CALL   3090
4A24:  BNZ   4A2A
4A26:  MOVLW  9B
4A28:  MOVWF  34
.................... if(v==3.1){c=156;}       
4A2A:  MOVFF  3D,44
4A2E:  MOVFF  3C,43
4A32:  MOVFF  3B,42
4A36:  MOVFF  3A,41
4A3A:  MOVLW  66
4A3C:  MOVWF  48
4A3E:  MOVWF  47
4A40:  MOVLW  46
4A42:  MOVWF  46
4A44:  MOVLW  80
4A46:  MOVWF  45
4A48:  CALL   3090
4A4C:  BNZ   4A52
4A4E:  MOVLW  9C
4A50:  MOVWF  34
.................... if(v==3.4){c=157;}             
4A52:  MOVFF  3D,44
4A56:  MOVFF  3C,43
4A5A:  MOVFF  3B,42
4A5E:  MOVFF  3A,41
4A62:  MOVLW  9A
4A64:  MOVWF  48
4A66:  MOVLW  99
4A68:  MOVWF  47
4A6A:  MOVLW  59
4A6C:  MOVWF  46
4A6E:  MOVLW  80
4A70:  MOVWF  45
4A72:  CALL   3090
4A76:  BNZ   4A7C
4A78:  MOVLW  9D
4A7A:  MOVWF  34
.................... if(v==3.7){ c=158;}         
4A7C:  MOVFF  3D,44
4A80:  MOVFF  3C,43
4A84:  MOVFF  3B,42
4A88:  MOVFF  3A,41
4A8C:  MOVLW  CD
4A8E:  MOVWF  48
4A90:  MOVLW  CC
4A92:  MOVWF  47
4A94:  MOVLW  6C
4A96:  MOVWF  46
4A98:  MOVLW  80
4A9A:  MOVWF  45
4A9C:  CALL   3090
4AA0:  BNZ   4AA6
4AA2:  MOVLW  9E
4AA4:  MOVWF  34
.................... if(v==4){c=159;}       
4AA6:  MOVFF  3D,44
4AAA:  MOVFF  3C,43
4AAE:  MOVFF  3B,42
4AB2:  MOVFF  3A,41
4AB6:  CLRF   48
4AB8:  CLRF   47
4ABA:  CLRF   46
4ABC:  MOVLW  81
4ABE:  MOVWF  45
4AC0:  CALL   3090
4AC4:  BNZ   4ACA
4AC6:  MOVLW  9F
4AC8:  MOVWF  34
.................... if(v==4.4){c=160;}    
4ACA:  MOVFF  3D,44
4ACE:  MOVFF  3C,43
4AD2:  MOVFF  3B,42
4AD6:  MOVFF  3A,41
4ADA:  MOVLW  CD
4ADC:  MOVWF  48
4ADE:  MOVLW  CC
4AE0:  MOVWF  47
4AE2:  MOVLW  0C
4AE4:  MOVWF  46
4AE6:  MOVLW  81
4AE8:  MOVWF  45
4AEA:  CALL   3090
4AEE:  BNZ   4AF4
4AF0:  MOVLW  A0
4AF2:  MOVWF  34
.................... if(v==4.7){c=161;} 
4AF4:  MOVFF  3D,44
4AF8:  MOVFF  3C,43
4AFC:  MOVFF  3B,42
4B00:  MOVFF  3A,41
4B04:  MOVLW  66
4B06:  MOVWF  48
4B08:  MOVWF  47
4B0A:  MOVLW  16
4B0C:  MOVWF  46
4B0E:  MOVLW  81
4B10:  MOVWF  45
4B12:  CALL   3090
4B16:  BNZ   4B1C
4B18:  MOVLW  A1
4B1A:  MOVWF  34
.................... if(v==4.8){c=161;}       
4B1C:  MOVFF  3D,44
4B20:  MOVFF  3C,43
4B24:  MOVFF  3B,42
4B28:  MOVFF  3A,41
4B2C:  MOVLW  9A
4B2E:  MOVWF  48
4B30:  MOVLW  99
4B32:  MOVWF  47
4B34:  MOVLW  19
4B36:  MOVWF  46
4B38:  MOVLW  81
4B3A:  MOVWF  45
4B3C:  CALL   3090
4B40:  BNZ   4B46
4B42:  MOVLW  A1
4B44:  MOVWF  34
.................... if(v==5.2){c=162;}       
4B46:  MOVFF  3D,44
4B4A:  MOVFF  3C,43
4B4E:  MOVFF  3B,42
4B52:  MOVFF  3A,41
4B56:  MOVLW  66
4B58:  MOVWF  48
4B5A:  MOVWF  47
4B5C:  MOVLW  26
4B5E:  MOVWF  46
4B60:  MOVLW  81
4B62:  MOVWF  45
4B64:  CALL   3090
4B68:  BNZ   4B6E
4B6A:  MOVLW  A2
4B6C:  MOVWF  34
.................... if(v==5.7){c=163;}       
4B6E:  MOVFF  3D,44
4B72:  MOVFF  3C,43
4B76:  MOVFF  3B,42
4B7A:  MOVFF  3A,41
4B7E:  MOVLW  66
4B80:  MOVWF  48
4B82:  MOVWF  47
4B84:  MOVLW  36
4B86:  MOVWF  46
4B88:  MOVLW  81
4B8A:  MOVWF  45
4B8C:  CALL   3090
4B90:  BNZ   4B96
4B92:  MOVLW  A3
4B94:  MOVWF  34
.................... if(v==6.3){c=164;}       
4B96:  MOVFF  3D,44
4B9A:  MOVFF  3C,43
4B9E:  MOVFF  3B,42
4BA2:  MOVFF  3A,41
4BA6:  MOVLW  9A
4BA8:  MOVWF  48
4BAA:  MOVLW  99
4BAC:  MOVWF  47
4BAE:  MOVLW  49
4BB0:  MOVWF  46
4BB2:  MOVLW  81
4BB4:  MOVWF  45
4BB6:  CALL   3090
4BBA:  BNZ   4BC0
4BBC:  MOVLW  A4
4BBE:  MOVWF  34
.................... if(v==6.9){c=165;}       
4BC0:  MOVFF  3D,44
4BC4:  MOVFF  3C,43
4BC8:  MOVFF  3B,42
4BCC:  MOVFF  3A,41
4BD0:  MOVLW  CD
4BD2:  MOVWF  48
4BD4:  MOVLW  CC
4BD6:  MOVWF  47
4BD8:  MOVLW  5C
4BDA:  MOVWF  46
4BDC:  MOVLW  81
4BDE:  MOVWF  45
4BE0:  CALL   3090
4BE4:  BNZ   4BEA
4BE6:  MOVLW  A5
4BE8:  MOVWF  34
.................... if(v==7.6){c=166;}       
4BEA:  MOVFF  3D,44
4BEE:  MOVFF  3C,43
4BF2:  MOVFF  3B,42
4BF6:  MOVFF  3A,41
4BFA:  MOVLW  33
4BFC:  MOVWF  48
4BFE:  MOVWF  47
4C00:  MOVLW  73
4C02:  MOVWF  46
4C04:  MOVLW  81
4C06:  MOVWF  45
4C08:  CALL   3090
4C0C:  BNZ   4C12
4C0E:  MOVLW  A6
4C10:  MOVWF  34
.................... if(v==8.3){c=167;}       
4C12:  MOVFF  3D,44
4C16:  MOVFF  3C,43
4C1A:  MOVFF  3B,42
4C1E:  MOVFF  3A,41
4C22:  MOVLW  CD
4C24:  MOVWF  48
4C26:  MOVLW  CC
4C28:  MOVWF  47
4C2A:  MOVLW  04
4C2C:  MOVWF  46
4C2E:  MOVLW  82
4C30:  MOVWF  45
4C32:  CALL   3090
4C36:  BNZ   4C3C
4C38:  MOVLW  A7
4C3A:  MOVWF  34
.................... if(v==9.2){c=168;}       
4C3C:  MOVFF  3D,44
4C40:  MOVFF  3C,43
4C44:  MOVFF  3B,42
4C48:  MOVFF  3A,41
4C4C:  MOVLW  33
4C4E:  MOVWF  48
4C50:  MOVWF  47
4C52:  MOVLW  13
4C54:  MOVWF  46
4C56:  MOVLW  82
4C58:  MOVWF  45
4C5A:  CALL   3090
4C5E:  BNZ   4C64
4C60:  MOVLW  A8
4C62:  MOVWF  34
.................... if(v==10.1){c=169;}      
4C64:  MOVFF  3D,44
4C68:  MOVFF  3C,43
4C6C:  MOVFF  3B,42
4C70:  MOVFF  3A,41
4C74:  MOVLW  9A
4C76:  MOVWF  48
4C78:  MOVLW  99
4C7A:  MOVWF  47
4C7C:  MOVLW  21
4C7E:  MOVWF  46
4C80:  MOVLW  82
4C82:  MOVWF  45
4C84:  CALL   3090
4C88:  BNZ   4C8E
4C8A:  MOVLW  A9
4C8C:  MOVWF  34
.................... if(v==11.1){c=170;}       
4C8E:  MOVFF  3D,44
4C92:  MOVFF  3C,43
4C96:  MOVFF  3B,42
4C9A:  MOVFF  3A,41
4C9E:  MOVLW  9A
4CA0:  MOVWF  48
4CA2:  MOVLW  99
4CA4:  MOVWF  47
4CA6:  MOVLW  31
4CA8:  MOVWF  46
4CAA:  MOVLW  82
4CAC:  MOVWF  45
4CAE:  CALL   3090
4CB2:  BNZ   4CB8
4CB4:  MOVLW  AA
4CB6:  MOVWF  34
.................... if(v==12.1){c=171;}       
4CB8:  MOVFF  3D,44
4CBC:  MOVFF  3C,43
4CC0:  MOVFF  3B,42
4CC4:  MOVFF  3A,41
4CC8:  MOVLW  9A
4CCA:  MOVWF  48
4CCC:  MOVLW  99
4CCE:  MOVWF  47
4CD0:  MOVLW  41
4CD2:  MOVWF  46
4CD4:  MOVLW  82
4CD6:  MOVWF  45
4CD8:  CALL   3090
4CDC:  BNZ   4CE2
4CDE:  MOVLW  AB
4CE0:  MOVWF  34
.................... if(v==13.1){c=172;}       
4CE2:  MOVFF  3D,44
4CE6:  MOVFF  3C,43
4CEA:  MOVFF  3B,42
4CEE:  MOVFF  3A,41
4CF2:  MOVLW  9A
4CF4:  MOVWF  48
4CF6:  MOVLW  99
4CF8:  MOVWF  47
4CFA:  MOVLW  51
4CFC:  MOVWF  46
4CFE:  MOVLW  82
4D00:  MOVWF  45
4D02:  CALL   3090
4D06:  BNZ   4D0C
4D08:  MOVLW  AC
4D0A:  MOVWF  34
.................... if(v==15.1){c=173;}       
4D0C:  MOVFF  3D,44
4D10:  MOVFF  3C,43
4D14:  MOVFF  3B,42
4D18:  MOVFF  3A,41
4D1C:  MOVLW  9A
4D1E:  MOVWF  48
4D20:  MOVLW  99
4D22:  MOVWF  47
4D24:  MOVLW  71
4D26:  MOVWF  46
4D28:  MOVLW  82
4D2A:  MOVWF  45
4D2C:  CALL   3090
4D30:  BNZ   4D36
4D32:  MOVLW  AD
4D34:  MOVWF  34
.................... if(v==16.1){c=174;}       
4D36:  MOVFF  3D,44
4D3A:  MOVFF  3C,43
4D3E:  MOVFF  3B,42
4D42:  MOVFF  3A,41
4D46:  MOVLW  CD
4D48:  MOVWF  48
4D4A:  MOVLW  CC
4D4C:  MOVWF  47
4D4E:  CLRF   46
4D50:  MOVLW  83
4D52:  MOVWF  45
4D54:  CALL   3090
4D58:  BNZ   4D5E
4D5A:  MOVLW  AE
4D5C:  MOVWF  34
.................... if(v==18.1){c=175;}       
4D5E:  MOVFF  3D,44
4D62:  MOVFF  3C,43
4D66:  MOVFF  3B,42
4D6A:  MOVFF  3A,41
4D6E:  MOVLW  CD
4D70:  MOVWF  48
4D72:  MOVLW  CC
4D74:  MOVWF  47
4D76:  MOVLW  10
4D78:  MOVWF  46
4D7A:  MOVLW  83
4D7C:  MOVWF  45
4D7E:  CALL   3090
4D82:  BNZ   4D88
4D84:  MOVLW  AF
4D86:  MOVWF  34
.................... if(v==20.1){c=176;}       
4D88:  MOVFF  3D,44
4D8C:  MOVFF  3C,43
4D90:  MOVFF  3B,42
4D94:  MOVFF  3A,41
4D98:  MOVLW  CD
4D9A:  MOVWF  48
4D9C:  MOVLW  CC
4D9E:  MOVWF  47
4DA0:  MOVLW  20
4DA2:  MOVWF  46
4DA4:  MOVLW  83
4DA6:  MOVWF  45
4DA8:  CALL   3090
4DAC:  BNZ   4DB2
4DAE:  MOVLW  B0
4DB0:  MOVWF  34
.................... if(v==22.1){c=177;} 
4DB2:  MOVFF  3D,44
4DB6:  MOVFF  3C,43
4DBA:  MOVFF  3B,42
4DBE:  MOVFF  3A,41
4DC2:  MOVLW  CD
4DC4:  MOVWF  48
4DC6:  MOVLW  CC
4DC8:  MOVWF  47
4DCA:  MOVLW  30
4DCC:  MOVWF  46
4DCE:  MOVLW  83
4DD0:  MOVWF  45
4DD2:  CALL   3090
4DD6:  BNZ   4DDC
4DD8:  MOVLW  B1
4DDA:  MOVWF  34
.................... } 
....................  
....................  
....................  
.................... } //if da variavel D 
.................... d=0; 
4DDC:  CLRF   40
.................... return c; 
4DDE:  CLRF   42
4DE0:  MOVFF  34,41
4DE4:  CALL   3106
.................... } 
4DE8:  RETLW  00
....................  
.................... void achaoled() 
.................... { 
....................  
.................... output_high(pin_b6); 
*
4EB6:  BCF    F93.6
4EB8:  BSF    F8A.6
.................... delay_ms(100); 
4EBA:  MOVLW  64
4EBC:  MOVWF  49
4EBE:  CALL   0A08
.................... output_low(pin_b6); 
4EC2:  BCF    F93.6
4EC4:  BCF    F8A.6
.................... delay_ms(100); 
4EC6:  MOVLW  64
4EC8:  MOVWF  49
4ECA:  CALL   0A08
....................  
....................  
.................... if(c==0){ 
4ECE:  MOVF   34,F
4ED0:  BNZ   4F52
.................... k+=0.1; 
4ED2:  BCF    FD8.1
4ED4:  MOVFF  30,3D
4ED8:  MOVFF  2F,3C
4EDC:  MOVFF  2E,3B
4EE0:  MOVFF  2D,3A
4EE4:  MOVLW  CD
4EE6:  MOVWF  41
4EE8:  MOVLW  CC
4EEA:  MOVWF  40
4EEC:  MOVLW  4C
4EEE:  MOVWF  3F
4EF0:  MOVLW  7B
4EF2:  MOVWF  3E
4EF4:  CALL   2E26
4EF8:  MOVFF  03,30
4EFC:  MOVFF  02,2F
4F00:  MOVFF  01,2E
4F04:  MOVFF  00,2D
.................... d=1; 
4F08:  MOVLW  01
4F0A:  MOVWF  32
.................... v=k; 
4F0C:  MOVFF  30,38
4F10:  MOVFF  2F,37
4F14:  MOVFF  2E,36
4F18:  MOVFF  2D,35
.................... c=eepromLER(v,kohm,mohm,d);} 
4F1C:  MOVFF  38,3D
4F20:  MOVFF  37,3C
4F24:  MOVFF  36,3B
4F28:  MOVFF  35,3A
4F2C:  MOVFF  1D,3E
4F30:  MOVFF  1E,3F
4F34:  MOVFF  32,40
4F38:  CALL   313C
4F3C:  MOVFF  03,3D
4F40:  MOVFF  02,3C
4F44:  MOVFF  01,3B
4F48:  MOVFF  00,3A
4F4C:  RCALL  4DEA
4F4E:  MOVFF  01,34
....................  
.................... for(i=0;i<250;i++) 
4F52:  CLRF   31
4F54:  MOVF   31,W
4F56:  SUBLW  F9
4F58:  BNC   4FEC
.................... {a=read_eeprom(i); 
4F5A:  MOVFF  FF2,3A
4F5E:  BCF    FF2.7
4F60:  MOVFF  31,FA9
4F64:  BCF    FA6.6
4F66:  BCF    FA6.7
4F68:  BSF    FA6.0
4F6A:  MOVF   FA8,W
4F6C:  BTFSC  3A.7
4F6E:  BSF    FF2.7
4F70:  MOVWF  39
.................... if(a==c){ 
4F72:  MOVF   34,W
4F74:  SUBWF  39,W
4F76:  BNZ   4FE8
....................           
....................           IF(i<=25){putc(i); 
4F78:  MOVF   31,W
4F7A:  SUBLW  19
4F7C:  BNC   4F92
4F7E:  MOVF   31,W
4F80:  BTFSS  F9E.4
4F82:  BRA    4F80
4F84:  MOVWF  FAD
....................                     while(!kbhit()) {} 
4F86:  BTFSC  F9E.5
4F88:  BRA    4F8C
4F8A:  BRA    4F86
....................                     getch(); } 
4F8C:  BTFSS  F9E.5
4F8E:  BRA    4F8C
4F90:  MOVF   FAE,W
....................                      
....................   IF(i>=26 && i<=50){putc(i); 
4F92:  MOVF   31,W
4F94:  SUBLW  19
4F96:  BC    4FB2
4F98:  MOVF   31,W
4F9A:  SUBLW  32
4F9C:  BNC   4FB2
4F9E:  MOVF   31,W
4FA0:  BTFSS  F9E.4
4FA2:  BRA    4FA0
4FA4:  MOVWF  FAD
....................                     while(!kbhit()) {} 
4FA6:  BTFSC  F9E.5
4FA8:  BRA    4FAC
4FAA:  BRA    4FA6
....................                     getch();} 
4FAC:  BTFSS  F9E.5
4FAE:  BRA    4FAC
4FB0:  MOVF   FAE,W
....................                      
....................  
....................  
.................... printf(lcd_putc,"\nCaixa= %u",i) ;  
4FB2:  CLRF   3A
4FB4:  MOVF   3A,W
4FB6:  CALL   0018
4FBA:  INCF   3A,F
4FBC:  MOVWF  00
4FBE:  MOVWF  48
4FC0:  CALL   0BE6
4FC4:  MOVLW  08
4FC6:  SUBWF  3A,W
4FC8:  BNZ   4FB4
4FCA:  MOVFF  31,3B
4FCE:  MOVLW  1B
4FD0:  MOVWF  3C
4FD2:  RCALL  4E4A
.................... delay_ms(2000); 
4FD4:  MOVLW  08
4FD6:  MOVWF  3A
4FD8:  MOVLW  FA
4FDA:  MOVWF  49
4FDC:  CALL   0A08
4FE0:  DECFSZ 3A,F
4FE2:  BRA    4FD8
.................... i=251;}} 
4FE4:  MOVLW  FB
4FE6:  MOVWF  31
4FE8:  INCF   31,F
4FEA:  BRA    4F54
....................  
.................... if(a!=c){ 
4FEC:  MOVF   34,W
4FEE:  SUBWF  39,W
4FF0:  BZ    5030
.................... lcd_putc("\fCaixa nao Encontrada "); 
4FF2:  CLRF   3A
4FF4:  MOVF   3A,W
4FF6:  CALL   0034
4FFA:  IORLW  00
4FFC:  BZ    5008
4FFE:  INCF   3A,F
5000:  MOVWF  48
5002:  CALL   0BE6
5006:  BRA    4FF4
.................... lcd_putc("\nValor nao Armazenado"); 
5008:  CLRF   3A
500A:  MOVF   3A,W
500C:  CALL   005C
5010:  IORLW  00
5012:  BZ    501E
5014:  INCF   3A,F
5016:  MOVWF  48
5018:  CALL   0BE6
501C:  BRA    500A
.................... delay_ms(1500); 
501E:  MOVLW  06
5020:  MOVWF  3A
5022:  MOVLW  FA
5024:  MOVWF  49
5026:  CALL   0A08
502A:  DECFSZ 3A,F
502C:  BRA    5022
....................  c=0; 
502E:  CLRF   34
.................... } 
....................  
.................... c=252; 
5030:  MOVLW  FC
5032:  MOVWF  34
.................... c=0; 
5034:  CLRF   34
.................... } 
5036:  RETLW  00
....................  
.................... void main() 
.................... { 
*
5192:  CLRF   FF8
5194:  BCF    FD0.7
5196:  CLRF   FEA
5198:  CLRF   FE9
519A:  MOVLW  81
519C:  MOVWF  FAF
519E:  MOVLW  A6
51A0:  MOVWF  FAC
51A2:  MOVLW  90
51A4:  MOVWF  FAB
51A6:  BSF    FC1.0
51A8:  BSF    FC1.1
51AA:  BSF    FC1.2
51AC:  BCF    FC1.3
51AE:  CLRF   06
51B0:  CLRF   07
51B2:  CLRF   08
51B4:  CLRF   09
51B6:  CLRF   0A
51B8:  CLRF   0B
51BA:  CLRF   0C
51BC:  CLRF   0D
51BE:  CLRF   0E
51C0:  CLRF   0F
51C2:  CLRF   10
51C4:  CLRF   11
51C6:  CLRF   12
51C8:  CLRF   13
51CA:  CLRF   14
51CC:  CLRF   15
51CE:  CLRF   16
51D0:  CLRF   17
51D2:  CLRF   18
51D4:  CLRF   19
51D6:  CLRF   1A
51D8:  CLRF   1B
51DA:  CLRF   1C
51DC:  CLRF   1D
51DE:  CLRF   1E
51E0:  CLRF   1F
51E2:  CLRF   20
51E4:  CLRF   21
51E6:  CLRF   22
51E8:  CLRF   23
51EA:  CLRF   24
51EC:  CLRF   25
51EE:  CLRF   26
51F0:  CLRF   27
51F2:  CLRF   28
51F4:  CLRF   29
51F6:  CLRF   2A
51F8:  CLRF   2B
51FA:  CLRF   2C
51FC:  CLRF   2D
51FE:  CLRF   2E
5200:  CLRF   2F
5202:  CLRF   30
5204:  CLRF   31
5206:  CLRF   32
5208:  CLRF   33
520A:  CLRF   34
520C:  CLRF   35
520E:  CLRF   36
5210:  CLRF   37
5212:  CLRF   38
5214:  CLRF   39
....................  
....................    setup_adc_ports(AN0); 
5216:  BCF    FC1.0
5218:  BSF    FC1.1
521A:  BSF    FC1.2
521C:  BSF    FC1.3
....................    setup_adc(ADC_CLOCK_INTERNAL); 
521E:  BCF    FC1.6
5220:  BSF    FC2.6
5222:  BSF    FC2.7
5224:  BCF    FC1.7
5226:  BSF    FC2.0
....................    setup_psp(PSP_DISABLED); 
5228:  BCF    F96.4
....................    setup_spi(SPI_SS_DISABLED); 
522A:  BCF    FC6.5
522C:  BCF    F94.5
522E:  BSF    F94.4
5230:  BCF    F94.3
5232:  MOVLW  01
5234:  MOVWF  FC6
5236:  MOVLW  00
5238:  MOVWF  FC7
....................    setup_wdt(WDT_OFF); 
523A:  BCF    FD1.0
....................    setup_timer_0(RTCC_INTERNAL); 
523C:  MOVLW  80
523E:  MOVWF  FD5
....................    setup_timer_1(T1_DISABLED); 
5240:  CLRF   FCD
....................    setup_timer_2(T2_DISABLED,0,1); 
5242:  MOVLW  00
5244:  MOVWF  FCA
5246:  MOVLW  00
5248:  MOVWF  FCB
....................    setup_timer_3(T3_DISABLED|T3_DIV_BY_1); 
524A:  CLRF   FB1
....................    setup_ccp1(CCP_OFF); 
524C:  BSF    F94.2
524E:  CLRF   FBD
....................  
....................    // TODO: USER CODE!! 
.................... lcd_init(); 
5250:  GOTO   0B58
....................  
.................... lcd_putc("\fCaixa Inteligente    "); 
5254:  CLRF   3A
5256:  MOVF   3A,W
5258:  CALL   0082
525C:  IORLW  00
525E:  BZ    526A
5260:  INCF   3A,F
5262:  MOVWF  48
5264:  CALL   0BE6
5268:  BRA    5256
.................... delay_ms(300); 
526A:  MOVLW  02
526C:  MOVWF  3A
526E:  MOVLW  96
5270:  MOVWF  49
5272:  CALL   0A08
5276:  DECFSZ 3A,F
5278:  BRA    526E
.................... lcd_putc("\n                    P"); 
527A:  CLRF   3A
527C:  MOVF   3A,W
527E:  CALL   00AA
5282:  IORLW  00
5284:  BZ    5290
5286:  INCF   3A,F
5288:  MOVWF  48
528A:  CALL   0BE6
528E:  BRA    527C
.................... delay_ms(50); 
5290:  MOVLW  32
5292:  MOVWF  49
5294:  CALL   0A08
.................... lcd_putc("\n                   Pa"); 
5298:  CLRF   3A
529A:  MOVF   3A,W
529C:  CALL   00D2
52A0:  IORLW  00
52A2:  BZ    52AE
52A4:  INCF   3A,F
52A6:  MOVWF  48
52A8:  CALL   0BE6
52AC:  BRA    529A
.................... delay_ms(50); 
52AE:  MOVLW  32
52B0:  MOVWF  49
52B2:  CALL   0A08
.................... lcd_putc("\n                  Par"); 
52B6:  CLRF   3A
52B8:  MOVF   3A,W
52BA:  CALL   00FA
52BE:  IORLW  00
52C0:  BZ    52CC
52C2:  INCF   3A,F
52C4:  MOVWF  48
52C6:  CALL   0BE6
52CA:  BRA    52B8
.................... delay_ms(50); 
52CC:  MOVLW  32
52CE:  MOVWF  49
52D0:  CALL   0A08
.................... lcd_putc("\n                 Para"); 
52D4:  CLRF   3A
52D6:  MOVF   3A,W
52D8:  CALL   0122
52DC:  IORLW  00
52DE:  BZ    52EA
52E0:  INCF   3A,F
52E2:  MOVWF  48
52E4:  CALL   0BE6
52E8:  BRA    52D6
.................... delay_ms(50); 
52EA:  MOVLW  32
52EC:  MOVWF  49
52EE:  CALL   0A08
.................... lcd_putc("\n                Para "); 
52F2:  CLRF   3A
52F4:  MOVF   3A,W
52F6:  CALL   014A
52FA:  IORLW  00
52FC:  BZ    5308
52FE:  INCF   3A,F
5300:  MOVWF  48
5302:  CALL   0BE6
5306:  BRA    52F4
.................... delay_ms(50); 
5308:  MOVLW  32
530A:  MOVWF  49
530C:  CALL   0A08
.................... lcd_putc("\n               Para r"); 
5310:  CLRF   3A
5312:  MOVF   3A,W
5314:  CALL   0172
5318:  IORLW  00
531A:  BZ    5326
531C:  INCF   3A,F
531E:  MOVWF  48
5320:  CALL   0BE6
5324:  BRA    5312
.................... delay_ms(50); 
5326:  MOVLW  32
5328:  MOVWF  49
532A:  CALL   0A08
.................... lcd_putc("\n              Para re"); 
532E:  CLRF   3A
5330:  MOVF   3A,W
5332:  CALL   019A
5336:  IORLW  00
5338:  BZ    5344
533A:  INCF   3A,F
533C:  MOVWF  48
533E:  CALL   0BE6
5342:  BRA    5330
.................... delay_ms(50); 
5344:  MOVLW  32
5346:  MOVWF  49
5348:  CALL   0A08
.................... lcd_putc("\n             Para res"); 
534C:  CLRF   3A
534E:  MOVF   3A,W
5350:  CALL   01C2
5354:  IORLW  00
5356:  BZ    5362
5358:  INCF   3A,F
535A:  MOVWF  48
535C:  CALL   0BE6
5360:  BRA    534E
.................... delay_ms(50); 
5362:  MOVLW  32
5364:  MOVWF  49
5366:  CALL   0A08
.................... lcd_putc("\n            Para resi"); 
536A:  CLRF   3A
536C:  MOVF   3A,W
536E:  CALL   01EA
5372:  IORLW  00
5374:  BZ    5380
5376:  INCF   3A,F
5378:  MOVWF  48
537A:  CALL   0BE6
537E:  BRA    536C
.................... delay_ms(50); 
5380:  MOVLW  32
5382:  MOVWF  49
5384:  CALL   0A08
.................... lcd_putc("\n           Para resis"); 
5388:  CLRF   3A
538A:  MOVF   3A,W
538C:  CALL   0212
5390:  IORLW  00
5392:  BZ    539E
5394:  INCF   3A,F
5396:  MOVWF  48
5398:  CALL   0BE6
539C:  BRA    538A
.................... delay_ms(50); 
539E:  MOVLW  32
53A0:  MOVWF  49
53A2:  CALL   0A08
.................... lcd_putc("\n          Para resist"); 
53A6:  CLRF   3A
53A8:  MOVF   3A,W
53AA:  CALL   023A
53AE:  IORLW  00
53B0:  BZ    53BC
53B2:  INCF   3A,F
53B4:  MOVWF  48
53B6:  CALL   0BE6
53BA:  BRA    53A8
.................... delay_ms(50); 
53BC:  MOVLW  32
53BE:  MOVWF  49
53C0:  CALL   0A08
.................... lcd_putc("\n         Para resisto"); 
53C4:  CLRF   3A
53C6:  MOVF   3A,W
53C8:  CALL   0262
53CC:  IORLW  00
53CE:  BZ    53DA
53D0:  INCF   3A,F
53D2:  MOVWF  48
53D4:  CALL   0BE6
53D8:  BRA    53C6
.................... delay_ms(50); 
53DA:  MOVLW  32
53DC:  MOVWF  49
53DE:  CALL   0A08
.................... lcd_putc("\n        Para resistor"); 
53E2:  CLRF   3A
53E4:  MOVF   3A,W
53E6:  CALL   028A
53EA:  IORLW  00
53EC:  BZ    53F8
53EE:  INCF   3A,F
53F0:  MOVWF  48
53F2:  CALL   0BE6
53F6:  BRA    53E4
.................... delay_ms(50); 
53F8:  MOVLW  32
53FA:  MOVWF  49
53FC:  CALL   0A08
.................... lcd_putc("\n       Para resistore"); 
5400:  CLRF   3A
5402:  MOVF   3A,W
5404:  CALL   02B2
5408:  IORLW  00
540A:  BZ    5416
540C:  INCF   3A,F
540E:  MOVWF  48
5410:  CALL   0BE6
5414:  BRA    5402
.................... delay_ms(50); 
5416:  MOVLW  32
5418:  MOVWF  49
541A:  CALL   0A08
.................... lcd_putc("\n      Para resistores"); 
541E:  CLRF   3A
5420:  MOVF   3A,W
5422:  CALL   02DA
5426:  IORLW  00
5428:  BZ    5434
542A:  INCF   3A,F
542C:  MOVWF  48
542E:  CALL   0BE6
5432:  BRA    5420
.................... delay_ms(50); 
5434:  MOVLW  32
5436:  MOVWF  49
5438:  CALL   0A08
.................... lcd_putc("\n     Para resistores "); 
543C:  CLRF   3A
543E:  MOVF   3A,W
5440:  CALL   0302
5444:  IORLW  00
5446:  BZ    5452
5448:  INCF   3A,F
544A:  MOVWF  48
544C:  CALL   0BE6
5450:  BRA    543E
.................... delay_ms(50); 
5452:  MOVLW  32
5454:  MOVWF  49
5456:  CALL   0A08
.................... lcd_putc("\n   Para resistores   "); 
545A:  CLRF   3A
545C:  MOVF   3A,W
545E:  CALL   032A
5462:  IORLW  00
5464:  BZ    5470
5466:  INCF   3A,F
5468:  MOVWF  48
546A:  CALL   0BE6
546E:  BRA    545C
.................... delay_ms(50); 
5470:  MOVLW  32
5472:  MOVWF  49
5474:  CALL   0A08
.................... lcd_putc("\n  Para resistores    "); 
5478:  CLRF   3A
547A:  MOVF   3A,W
547C:  CALL   0352
5480:  IORLW  00
5482:  BZ    548E
5484:  INCF   3A,F
5486:  MOVWF  48
5488:  CALL   0BE6
548C:  BRA    547A
.................... delay_ms(50); 
548E:  MOVLW  32
5490:  MOVWF  49
5492:  CALL   0A08
.................... lcd_putc("\nPara resistores -^^- "); 
5496:  CLRF   3A
5498:  MOVF   3A,W
549A:  CALL   037A
549E:  IORLW  00
54A0:  BZ    54AC
54A2:  INCF   3A,F
54A4:  MOVWF  48
54A6:  CALL   0BE6
54AA:  BRA    5498
.................... delay_ms(50); 
54AC:  MOVLW  32
54AE:  MOVWF  49
54B0:  CALL   0A08
....................  
.................... delay_ms(1000); 
54B4:  MOVLW  04
54B6:  MOVWF  3A
54B8:  MOVLW  FA
54BA:  MOVWF  49
54BC:  CALL   0A08
54C0:  DECFSZ 3A,F
54C2:  BRA    54B8
.................... set_adc_channel(0); // ativa o ad  
54C4:  MOVLW  00
54C6:  MOVWF  01
54C8:  MOVF   FC2,W
54CA:  ANDLW  C7
54CC:  IORWF  01,W
54CE:  MOVWF  FC2
.................... delay_ms(100); 
54D0:  MOVLW  64
54D2:  MOVWF  49
54D4:  CALL   0A08
.................... lcd_putc("\f"); 
54D8:  CLRF   3A
54DA:  MOVF   3A,W
54DC:  CALL   03A2
54E0:  IORLW  00
54E2:  BZ    54EE
54E4:  INCF   3A,F
54E6:  MOVWF  48
54E8:  CALL   0BE6
54EC:  BRA    54DA
.................... j=0; 
54EE:  CLRF   06
....................  
....................  
.................... while(true){ 
.................... lcd_putc("\fPressione  B1=Buscar"); 
54F0:  CLRF   3A
54F2:  MOVF   3A,W
54F4:  CALL   03B4
54F8:  IORLW  00
54FA:  BZ    5506
54FC:  INCF   3A,F
54FE:  MOVWF  48
5500:  CALL   0BE6
5504:  BRA    54F2
.................... lcd_putc("\nPressione  B2=Ler   "); 
5506:  CLRF   3A
5508:  MOVF   3A,W
550A:  CALL   03DA
550E:  IORLW  00
5510:  BZ    551C
5512:  INCF   3A,F
5514:  MOVWF  48
5516:  CALL   0BE6
551A:  BRA    5508
.................... delay_ms(200); 
551C:  MOVLW  C8
551E:  MOVWF  49
5520:  CALL   0A08
....................  
.................... if(input(pin_a3)){leitura=1; // apagar uma caixa 
5524:  BSF    F92.3
5526:  BTFSS  F80.3
5528:  BRA    5AA2
552A:  CLRF   2C
552C:  MOVLW  01
552E:  MOVWF  2B
....................  
.................... teclado=0; 
5530:  CLRF   08
5532:  CLRF   07
.................... digito=0; 
5534:  CLRF   0A
5536:  CLRF   09
.................... w=0; 
5538:  CLRF   0B
.................... unidade=0; 
553A:  CLRF   0D
553C:  CLRF   0C
.................... dezena=0; 
553E:  CLRF   0F
5540:  CLRF   0E
.................... dezena1=0; 
5542:  CLRF   13
5544:  CLRF   12
5546:  CLRF   11
5548:  CLRF   10
.................... centena=0; 
554A:  CLRF   15
554C:  CLRF   14
.................... resultado=0; 
554E:  CLRF   17
5550:  CLRF   16
.................... resultado1=0; 
5552:  CLRF   1B
5554:  CLRF   1A
5556:  CLRF   19
5558:  CLRF   18
.................... virgula=0; 
555A:  CLRF   1C
.................... y=0; 
555C:  CLRF   22
555E:  CLRF   21
5560:  CLRF   20
5562:  CLRF   1F
.................... valor=0; 
5564:  CLRF   26
5566:  CLRF   25
5568:  CLRF   24
556A:  CLRF   23
.................... valor1=0; 
556C:  CLRF   2A
556E:  CLRF   29
5570:  CLRF   28
5572:  CLRF   27
.................... c=0; 
5574:  CLRF   34
....................  
.................... lcd_putc("\fCaixa a ser apagada"); 
5576:  CLRF   3A
5578:  MOVF   3A,W
557A:  CALL   0400
557E:  IORLW  00
5580:  BZ    558C
5582:  INCF   3A,F
5584:  MOVWF  48
5586:  CALL   0BE6
558A:  BRA    5578
.................... lcd_putc("\nNumero:            "); 
558C:  CLRF   3A
558E:  MOVF   3A,W
5590:  CALL   0426
5594:  IORLW  00
5596:  BZ    55A2
5598:  INCF   3A,F
559A:  MOVWF  48
559C:  CALL   0BE6
55A0:  BRA    558E
.................... delay_ms(500); 
55A2:  MOVLW  02
55A4:  MOVWF  3A
55A6:  MOVLW  FA
55A8:  MOVWF  49
55AA:  CALL   0A08
55AE:  DECFSZ 3A,F
55B0:  BRA    55A6
....................  
.................... while(leitura==1){ //apaga eeprom 
55B2:  DECFSZ 2B,W
55B4:  BRA    58FA
55B6:  MOVF   2C,F
55B8:  BTFSS  FD8.2
55BA:  BRA    58FA
....................  
.................... output_high(pin_d7); 
55BC:  BCF    F95.7
55BE:  BSF    F8C.7
.................... teclado=input_b(); 
55C0:  MOVLW  FF
55C2:  MOVWF  F93
55C4:  CLRF   08
55C6:  MOVFF  F81,07
.................... teclado=teclado & 15; 
55CA:  MOVLW  0F
55CC:  ANDWF  07,F
55CE:  CLRF   08
....................     
.................... switch (teclado){ 
55D0:  MOVFF  07,00
55D4:  MOVF   08,W
55D6:  MOVWF  03
55D8:  BNZ   55E0
55DA:  MOVLW  02
55DC:  SUBWF  00,W
55DE:  BZ    55F6
55E0:  MOVF   03,W
55E2:  BNZ   55EA
55E4:  MOVLW  04
55E6:  SUBWF  00,W
55E8:  BZ    5600
55EA:  MOVF   03,W
55EC:  BNZ   55F4
55EE:  MOVLW  08
55F0:  SUBWF  00,W
55F2:  BZ    560A
55F4:  BRA    5614
.................... case 2:digito=7; 
55F6:  CLRF   0A
55F8:  MOVLW  07
55FA:  MOVWF  09
....................        w++; 
55FC:  INCF   0B,F
....................        break; 
55FE:  BRA    5614
.................... case 4:digito=4; 
5600:  CLRF   0A
5602:  MOVLW  04
5604:  MOVWF  09
....................        w++; 
5606:  INCF   0B,F
....................        break; 
5608:  BRA    5614
.................... case 8:digito=1;  
560A:  CLRF   0A
560C:  MOVLW  01
560E:  MOVWF  09
....................        w++; 
5610:  INCF   0B,F
....................        break;} 
5612:  BRA    5614
....................     
.................... output_low(pin_d7);    
5614:  BCF    F95.7
5616:  BCF    F8C.7
.................... output_high(pin_d6); 
5618:  BCF    F95.6
561A:  BSF    F8C.6
.................... teclado=input_b(); 
561C:  MOVLW  FF
561E:  MOVWF  F93
5620:  CLRF   08
5622:  MOVFF  F81,07
.................... teclado=teclado & 15; 
5626:  MOVLW  0F
5628:  ANDWF  07,F
562A:  CLRF   08
....................  
.................... switch (teclado){ 
562C:  MOVFF  07,00
5630:  MOVF   08,W
5632:  MOVWF  03
5634:  BNZ   563C
5636:  MOVLW  01
5638:  SUBWF  00,W
563A:  BZ    565C
563C:  MOVF   03,W
563E:  BNZ   5646
5640:  MOVLW  02
5642:  SUBWF  00,W
5644:  BZ    5664
5646:  MOVF   03,W
5648:  BNZ   5650
564A:  MOVLW  04
564C:  SUBWF  00,W
564E:  BZ    566E
5650:  MOVF   03,W
5652:  BNZ   565A
5654:  MOVLW  08
5656:  SUBWF  00,W
5658:  BZ    5678
565A:  BRA    5682
.................... case 1:digito=0; 
565C:  CLRF   0A
565E:  CLRF   09
....................        w++; 
5660:  INCF   0B,F
....................        break; 
5662:  BRA    5682
.................... case 2:digito=8; 
5664:  CLRF   0A
5666:  MOVLW  08
5668:  MOVWF  09
....................        w++; 
566A:  INCF   0B,F
....................        break; 
566C:  BRA    5682
.................... case 4:digito=5;  
566E:  CLRF   0A
5670:  MOVLW  05
5672:  MOVWF  09
....................        w++;   
5674:  INCF   0B,F
....................        break; 
5676:  BRA    5682
.................... case 8:digito=2;  
5678:  CLRF   0A
567A:  MOVLW  02
567C:  MOVWF  09
....................        w++;   
567E:  INCF   0B,F
....................        break;} 
5680:  BRA    5682
....................  
....................   
.................... output_low(pin_d6); 
5682:  BCF    F95.6
5684:  BCF    F8C.6
.................... output_high(pin_d5); 
5686:  BCF    F95.5
5688:  BSF    F8C.5
.................... teclado=input_b(); 
568A:  MOVLW  FF
568C:  MOVWF  F93
568E:  CLRF   08
5690:  MOVFF  F81,07
.................... teclado=teclado & 15; 
5694:  MOVLW  0F
5696:  ANDWF  07,F
5698:  CLRF   08
....................  
.................... switch (teclado){ 
569A:  MOVFF  07,00
569E:  MOVF   08,W
56A0:  MOVWF  03
56A2:  BNZ   56AA
56A4:  MOVLW  02
56A6:  SUBWF  00,W
56A8:  BZ    56C0
56AA:  MOVF   03,W
56AC:  BNZ   56B4
56AE:  MOVLW  04
56B0:  SUBWF  00,W
56B2:  BZ    56CA
56B4:  MOVF   03,W
56B6:  BNZ   56BE
56B8:  MOVLW  08
56BA:  SUBWF  00,W
56BC:  BZ    56D4
56BE:  BRA    56DE
.................... case 2:digito=9;  
56C0:  CLRF   0A
56C2:  MOVLW  09
56C4:  MOVWF  09
....................        w++; 
56C6:  INCF   0B,F
....................        break; 
56C8:  BRA    56DE
.................... case 4:digito=6;  
56CA:  CLRF   0A
56CC:  MOVLW  06
56CE:  MOVWF  09
....................        w++; 
56D0:  INCF   0B,F
....................        break; 
56D2:  BRA    56DE
.................... case 8:digito=3;  
56D4:  CLRF   0A
56D6:  MOVLW  03
56D8:  MOVWF  09
....................        w++; 
56DA:  INCF   0B,F
....................        break;} 
56DC:  BRA    56DE
....................  
.................... output_low(pin_d5); 
56DE:  BCF    F95.5
56E0:  BCF    F8C.5
....................  
....................  
.................... switch(w){ 
56E2:  MOVF   0B,W
56E4:  XORLW  01
56E6:  BZ    56F2
56E8:  XORLW  02
56EA:  BZ    574A
56EC:  XORLW  06
56EE:  BZ    57B8
56F0:  BRA    5824
.................... case 1:w++;  
56F2:  INCF   0B,F
....................         unidade=digito; 
56F4:  MOVFF  0A,0D
56F8:  MOVFF  09,0C
....................         valor=digito ; 
56FC:  CLRF   26
56FE:  CLRF   25
5700:  MOVFF  0A,24
5704:  MOVFF  09,23
....................         printf(lcd_putc,"\nNumero:%lu",valor); 
5708:  CLRF   3A
570A:  MOVF   3A,W
570C:  CALL   044C
5710:  INCF   3A,F
5712:  MOVWF  00
5714:  MOVWF  48
5716:  CALL   0BE6
571A:  MOVLW  08
571C:  SUBWF  3A,W
571E:  BNZ   570A
5720:  MOVLW  41
5722:  MOVWF  FE9
5724:  MOVFF  26,3E
5728:  MOVFF  25,3D
572C:  MOVFF  24,3C
5730:  MOVFF  23,3B
5734:  CALL   0CA2
....................         delay_ms(270); 
5738:  MOVLW  02
573A:  MOVWF  3A
573C:  MOVLW  87
573E:  MOVWF  49
5740:  CALL   0A08
5744:  DECFSZ 3A,F
5746:  BRA    573C
....................         break; 
5748:  BRA    5824
....................  
.................... case 3:w++; 
574A:  INCF   0B,F
....................        dezena=(unidade*10)+digito; 
574C:  MOVFF  0D,3B
5750:  MOVFF  0C,3A
5754:  CLRF   3D
5756:  MOVLW  0A
5758:  MOVWF  3C
575A:  CALL   0D4C
575E:  MOVF   09,W
5760:  ADDWF  01,W
5762:  MOVWF  0E
5764:  MOVF   0A,W
5766:  ADDWFC 02,W
5768:  MOVWF  0F
....................        valor=dezena; 
576A:  CLRF   26
576C:  CLRF   25
576E:  MOVFF  0F,24
5772:  MOVFF  0E,23
....................        printf(lcd_putc,"\nNumero:%lu",valor); 
5776:  CLRF   3A
5778:  MOVF   3A,W
577A:  CALL   044C
577E:  INCF   3A,F
5780:  MOVWF  00
5782:  MOVWF  48
5784:  CALL   0BE6
5788:  MOVLW  08
578A:  SUBWF  3A,W
578C:  BNZ   5778
578E:  MOVLW  41
5790:  MOVWF  FE9
5792:  MOVFF  26,3E
5796:  MOVFF  25,3D
579A:  MOVFF  24,3C
579E:  MOVFF  23,3B
57A2:  CALL   0CA2
....................        delay_ms(270); 
57A6:  MOVLW  02
57A8:  MOVWF  3A
57AA:  MOVLW  87
57AC:  MOVWF  49
57AE:  CALL   0A08
57B2:  DECFSZ 3A,F
57B4:  BRA    57AA
....................        break; 
57B6:  BRA    5824
....................    
.................... case 5: 
....................        centena=(dezena*10)+digito; 
57B8:  MOVFF  0F,3B
57BC:  MOVFF  0E,3A
57C0:  CLRF   3D
57C2:  MOVLW  0A
57C4:  MOVWF  3C
57C6:  CALL   0D4C
57CA:  MOVF   09,W
57CC:  ADDWF  01,W
57CE:  MOVWF  14
57D0:  MOVF   0A,W
57D2:  ADDWFC 02,W
57D4:  MOVWF  15
....................        valor=centena; 
57D6:  CLRF   26
57D8:  CLRF   25
57DA:  MOVFF  15,24
57DE:  MOVFF  14,23
....................        printf(lcd_putc,"\nNumero:%lu",valor); 
57E2:  CLRF   3A
57E4:  MOVF   3A,W
57E6:  CALL   044C
57EA:  INCF   3A,F
57EC:  MOVWF  00
57EE:  MOVWF  48
57F0:  CALL   0BE6
57F4:  MOVLW  08
57F6:  SUBWF  3A,W
57F8:  BNZ   57E4
57FA:  MOVLW  41
57FC:  MOVWF  FE9
57FE:  MOVFF  26,3E
5802:  MOVFF  25,3D
5806:  MOVFF  24,3C
580A:  MOVFF  23,3B
580E:  CALL   0CA2
....................        delay_ms(270); 
5812:  MOVLW  02
5814:  MOVWF  3A
5816:  MOVLW  87
5818:  MOVWF  49
581A:  CALL   0A08
581E:  DECFSZ 3A,F
5820:  BRA    5816
....................        break;} 
5822:  BRA    5824
....................  
.................... if(input(pin_B6)){ 
5824:  BSF    F93.6
5826:  BTFSS  F81.6
5828:  BRA    58B0
.................... lcd_putc("\fCaixa a ser apagada"); 
582A:  CLRF   3A
582C:  MOVF   3A,W
582E:  CALL   0400
5832:  IORLW  00
5834:  BZ    5840
5836:  INCF   3A,F
5838:  MOVWF  48
583A:  CALL   0BE6
583E:  BRA    582C
.................... lcd_putc("\nNumero:            "); 
5840:  CLRF   3A
5842:  MOVF   3A,W
5844:  CALL   0426
5848:  IORLW  00
584A:  BZ    5856
584C:  INCF   3A,F
584E:  MOVWF  48
5850:  CALL   0BE6
5854:  BRA    5842
.................... delay_ms(10); 
5856:  MOVLW  0A
5858:  MOVWF  49
585A:  CALL   0A08
.................... teclado=0; 
585E:  CLRF   08
5860:  CLRF   07
.................... digito=0; 
5862:  CLRF   0A
5864:  CLRF   09
.................... w=0; 
5866:  CLRF   0B
.................... unidade=0; 
5868:  CLRF   0D
586A:  CLRF   0C
.................... dezena=0; 
586C:  CLRF   0F
586E:  CLRF   0E
.................... dezena1=0; 
5870:  CLRF   13
5872:  CLRF   12
5874:  CLRF   11
5876:  CLRF   10
.................... centena=0; 
5878:  CLRF   15
587A:  CLRF   14
.................... resultado=0; 
587C:  CLRF   17
587E:  CLRF   16
.................... resultado1=0; 
5880:  CLRF   1B
5882:  CLRF   1A
5884:  CLRF   19
5886:  CLRF   18
.................... virgula=0; 
5888:  CLRF   1C
.................... kohm=0; 
588A:  CLRF   1D
.................... mohm=0; 
588C:  CLRF   1E
.................... y=0; 
588E:  CLRF   22
5890:  CLRF   21
5892:  CLRF   20
5894:  CLRF   1F
.................... valor=0; 
5896:  CLRF   26
5898:  CLRF   25
589A:  CLRF   24
589C:  CLRF   23
.................... valor1=0; 
589E:  CLRF   2A
58A0:  CLRF   29
58A2:  CLRF   28
58A4:  CLRF   27
.................... v=0; 
58A6:  CLRF   38
58A8:  CLRF   37
58AA:  CLRF   36
58AC:  CLRF   35
.................... c=0; 
58AE:  CLRF   34
.................... } 
....................  
.................... if(input(pin_b7)) {leitura++; 
58B0:  BSF    F93.7
58B2:  BTFSS  F81.7
58B4:  BRA    58F8
58B6:  INCF   2B,F
58B8:  BTFSC  FD8.2
58BA:  INCF   2C,F
.................... lcd_putc("\fConfirmar = Enter   "); 
58BC:  CLRF   3A
58BE:  MOVF   3A,W
58C0:  CALL   0468
58C4:  IORLW  00
58C6:  BZ    58D2
58C8:  INCF   3A,F
58CA:  MOVWF  48
58CC:  CALL   0BE6
58D0:  BRA    58BE
.................... lcd_putc("\nVoltar    = Deletar "); 
58D2:  CLRF   3A
58D4:  MOVF   3A,W
58D6:  CALL   048E
58DA:  IORLW  00
58DC:  BZ    58E8
58DE:  INCF   3A,F
58E0:  MOVWF  48
58E2:  CALL   0BE6
58E6:  BRA    58D4
.................... delay_ms(2000);} 
58E8:  MOVLW  08
58EA:  MOVWF  3A
58EC:  MOVLW  FA
58EE:  MOVWF  49
58F0:  CALL   0A08
58F4:  DECFSZ 3A,F
58F6:  BRA    58EC
....................  
.................... } 
58F8:  BRA    55B2
....................  
.................... while(leitura==2){ 
58FA:  MOVF   2B,W
58FC:  SUBLW  02
58FE:  BTFSS  FD8.2
5900:  BRA    5AA2
5902:  MOVF   2C,F
5904:  BTFSS  FD8.2
5906:  BRA    5AA2
....................  
.................... if(input(pin_b6)){leitura=0;valor=0; 
5908:  BSF    F93.6
590A:  BTFSS  F81.6
590C:  BRA    5958
590E:  CLRF   2C
5910:  CLRF   2B
5912:  CLRF   26
5914:  CLRF   25
5916:  CLRF   24
5918:  CLRF   23
.................... teclado=0; 
591A:  CLRF   08
591C:  CLRF   07
.................... digito=0; 
591E:  CLRF   0A
5920:  CLRF   09
.................... w=0; 
5922:  CLRF   0B
.................... unidade=0; 
5924:  CLRF   0D
5926:  CLRF   0C
.................... dezena=0; 
5928:  CLRF   0F
592A:  CLRF   0E
.................... dezena1=0; 
592C:  CLRF   13
592E:  CLRF   12
5930:  CLRF   11
5932:  CLRF   10
.................... centena=0; 
5934:  CLRF   15
5936:  CLRF   14
.................... resultado=0; 
5938:  CLRF   17
593A:  CLRF   16
.................... resultado1=0; 
593C:  CLRF   1B
593E:  CLRF   1A
5940:  CLRF   19
5942:  CLRF   18
.................... virgula=0; 
5944:  CLRF   1C
.................... y=0; 
5946:  CLRF   22
5948:  CLRF   21
594A:  CLRF   20
594C:  CLRF   1F
.................... valor1=0; 
594E:  CLRF   2A
5950:  CLRF   29
5952:  CLRF   28
5954:  CLRF   27
.................... c=0;} 
5956:  CLRF   34
....................  
.................... if(input(pin_b7)){ //Pressionado Enter 
5958:  BSF    F93.7
595A:  BTFSS  F81.7
595C:  BRA    5AA0
....................  
.................... //varivel do teclado "Valor" 
.................... if(valor==0) //Caso o valor digitado do teclado seja 0 
595E:  MOVF   23,F
5960:  BNZ   59CC
5962:  MOVF   24,F
5964:  BNZ   59CC
5966:  MOVF   25,F
5968:  BNZ   59CC
596A:  MOVF   26,F
596C:  BNZ   59CC
.................... {for(i=0;i<254;i++){ //Lao de repetio pra escrever na eeprom 
596E:  CLRF   31
5970:  MOVF   31,W
5972:  SUBLW  FD
5974:  BNC   59A4
.................... write_eeprom(i,0);} //Escreve 0 em todos os endereos 
5976:  MOVFF  31,FA9
597A:  CLRF   FA8
597C:  BCF    FA6.6
597E:  BCF    FA6.7
5980:  BSF    FA6.2
5982:  MOVFF  FF2,00
5986:  BCF    FF2.7
5988:  MOVLB  F
598A:  MOVLW  55
598C:  MOVWF  FA7
598E:  MOVLW  AA
5990:  MOVWF  FA7
5992:  BSF    FA6.1
5994:  BTFSC  FA6.1
5996:  BRA    5994
5998:  BCF    FA6.2
599A:  MOVF   00,W
599C:  IORWF  FF2,F
599E:  INCF   31,F
59A0:  MOVLB  0
59A2:  BRA    5970
.................... lcd_putc("\fMemoria Resetada"); delay_ms(500);} //Diz que a memoria foi resetada 
59A4:  CLRF   3A
59A6:  MOVF   3A,W
59A8:  CALL   04B4
59AC:  IORLW  00
59AE:  BZ    59BA
59B0:  INCF   3A,F
59B2:  MOVWF  48
59B4:  CALL   0BE6
59B8:  BRA    59A6
59BA:  MOVLW  02
59BC:  MOVWF  3A
59BE:  MOVLW  FA
59C0:  MOVWF  49
59C2:  CALL   0A08
59C6:  DECFSZ 3A,F
59C8:  BRA    59BE
....................  
....................  
.................... //varivel do teclado "Valor" 
.................... else{ //Caso o valor digitado seja diferente de 0 
59CA:  BRA    5A56
.................... write_eeprom(valor,0); //Escreve no endereo digitado o valor de resistor 0 
59CC:  MOVFF  23,FA9
59D0:  CLRF   FA8
59D2:  BCF    FA6.6
59D4:  BCF    FA6.7
59D6:  BSF    FA6.2
59D8:  MOVFF  FF2,00
59DC:  BCF    FF2.7
59DE:  MOVLB  F
59E0:  MOVLW  55
59E2:  MOVWF  FA7
59E4:  MOVLW  AA
59E6:  MOVWF  FA7
59E8:  BSF    FA6.1
59EA:  BTFSC  FA6.1
59EC:  BRA    59EA
59EE:  BCF    FA6.2
59F0:  MOVF   00,W
59F2:  IORWF  FF2,F
.................... printf(lcd_putc,"\fCaixa=%lu Apagada",valor);//Diz a caixa que foi apagada 
59F4:  CLRF   3A
59F6:  MOVF   3A,W
59F8:  MOVLB  0
59FA:  CALL   04D6
59FE:  INCF   3A,F
5A00:  MOVWF  00
5A02:  MOVWF  48
5A04:  CALL   0BE6
5A08:  MOVLW  07
5A0A:  SUBWF  3A,W
5A0C:  BTFSC  FD8.2
5A0E:  BRA    5A14
5A10:  MOVLB  F
5A12:  BRA    59F6
5A14:  MOVLW  41
5A16:  MOVWF  FE9
5A18:  MOVFF  26,3E
5A1C:  MOVFF  25,3D
5A20:  MOVFF  24,3C
5A24:  MOVFF  23,3B
5A28:  CALL   0CA2
5A2C:  MOVLW  0A
5A2E:  MOVWF  3B
5A30:  MOVF   3B,W
5A32:  CALL   04D6
5A36:  INCF   3B,F
5A38:  MOVWF  00
5A3A:  MOVWF  48
5A3C:  CALL   0BE6
5A40:  MOVLW  12
5A42:  SUBWF  3B,W
5A44:  BNZ   5A30
.................... delay_ms(1000); 
5A46:  MOVLW  04
5A48:  MOVWF  3A
5A4A:  MOVLW  FA
5A4C:  MOVWF  49
5A4E:  CALL   0A08
5A52:  DECFSZ 3A,F
5A54:  BRA    5A4A
.................... }  
....................  
.................... leitura=0;valor=0; 
5A56:  CLRF   2C
5A58:  CLRF   2B
5A5A:  CLRF   26
5A5C:  CLRF   25
5A5E:  CLRF   24
5A60:  CLRF   23
.................... teclado=0; 
5A62:  CLRF   08
5A64:  CLRF   07
.................... digito=0; 
5A66:  CLRF   0A
5A68:  CLRF   09
.................... w=0; 
5A6A:  CLRF   0B
.................... unidade=0; 
5A6C:  CLRF   0D
5A6E:  CLRF   0C
.................... dezena=0; 
5A70:  CLRF   0F
5A72:  CLRF   0E
.................... dezena1=0; 
5A74:  CLRF   13
5A76:  CLRF   12
5A78:  CLRF   11
5A7A:  CLRF   10
.................... centena=0; 
5A7C:  CLRF   15
5A7E:  CLRF   14
.................... resultado=0; 
5A80:  CLRF   17
5A82:  CLRF   16
.................... resultado1=0; 
5A84:  CLRF   1B
5A86:  CLRF   1A
5A88:  CLRF   19
5A8A:  CLRF   18
.................... virgula=0; 
5A8C:  CLRF   1C
.................... y=0; 
5A8E:  CLRF   22
5A90:  CLRF   21
5A92:  CLRF   20
5A94:  CLRF   1F
.................... valor1=0; 
5A96:  CLRF   2A
5A98:  CLRF   29
5A9A:  CLRF   28
5A9C:  CLRF   27
.................... c=0; 
5A9E:  CLRF   34
....................  
.................... } 
.................... } 
5AA0:  BRA    58FA
....................  
.................... } //while do menu apagar caixa 
....................  
....................  
.................... while(input(pin_e0)){ // ativa ohmimetro 
5AA2:  BSF    F96.0
5AA4:  BTFSS  F84.0
5AA6:  BRA    5F0C
.................... output_high(pin_c0); 
5AA8:  BCF    F94.0
5AAA:  BSF    F8B.0
.................... lcd_putc("\fInsira o Resistor  "); delay_ms(200); 
5AAC:  CLRF   3A
5AAE:  MOVF   3A,W
5AB0:  CALL   04FA
5AB4:  IORLW  00
5AB6:  BZ    5AC2
5AB8:  INCF   3A,F
5ABA:  MOVWF  48
5ABC:  CALL   0BE6
5AC0:  BRA    5AAE
5AC2:  MOVLW  C8
5AC4:  MOVWF  49
5AC6:  CALL   0A08
....................  
....................  
.................... if(input(pin_b4)) 
5ACA:  BSF    F93.4
5ACC:  BTFSS  F81.4
5ACE:  BRA    5F0A
.................... { 
.................... k=0; 
5AD0:  CLRF   30
5AD2:  CLRF   2F
5AD4:  CLRF   2E
5AD6:  CLRF   2D
.................... x=0; 
5AD8:  CLRF   05
.................... leitura=0; 
5ADA:  CLRF   2C
5ADC:  CLRF   2B
.................... valor=0; 
5ADE:  CLRF   26
5AE0:  CLRF   25
5AE2:  CLRF   24
5AE4:  CLRF   23
.................... teclado=0; 
5AE6:  CLRF   08
5AE8:  CLRF   07
.................... digito=0; 
5AEA:  CLRF   0A
5AEC:  CLRF   09
.................... w=0; 
5AEE:  CLRF   0B
.................... unidade=0; 
5AF0:  CLRF   0D
5AF2:  CLRF   0C
.................... dezena=0; 
5AF4:  CLRF   0F
5AF6:  CLRF   0E
.................... dezena1=0; 
5AF8:  CLRF   13
5AFA:  CLRF   12
5AFC:  CLRF   11
5AFE:  CLRF   10
.................... centena=0; 
5B00:  CLRF   15
5B02:  CLRF   14
.................... resultado=0; 
5B04:  CLRF   17
5B06:  CLRF   16
.................... resultado1=0; 
5B08:  CLRF   1B
5B0A:  CLRF   1A
5B0C:  CLRF   19
5B0E:  CLRF   18
.................... virgula=0; 
5B10:  CLRF   1C
.................... y=0; 
5B12:  CLRF   22
5B14:  CLRF   21
5B16:  CLRF   20
5B18:  CLRF   1F
.................... valor1=0; 
5B1A:  CLRF   2A
5B1C:  CLRF   29
5B1E:  CLRF   28
5B20:  CLRF   27
.................... c=0; 
5B22:  CLRF   34
.................... delay_ms(50); 
5B24:  MOVLW  32
5B26:  MOVWF  49
5B28:  CALL   0A08
....................  
.................... output_high(c0); 
5B2C:  BCF    F94.0
5B2E:  BSF    F8B.0
....................  
.................... leitura=read_adc(); delay_ms(500); 
5B30:  BSF    FC2.2
5B32:  BTFSC  FC2.2
5B34:  BRA    5B32
5B36:  MOVFF  FC4,03
5B3A:  MOVFF  FC3,2B
5B3E:  MOVFF  03,2C
5B42:  MOVLW  02
5B44:  MOVWF  3A
5B46:  MOVLW  FA
5B48:  MOVWF  49
5B4A:  CALL   0A08
5B4E:  DECFSZ 3A,F
5B50:  BRA    5B46
....................  
.................... if(leitura>=62800){ 
5B52:  MOVF   2C,W
5B54:  SUBLW  F4
5B56:  BC    5B9E
5B58:  XORLW  FF
5B5A:  BNZ   5B62
5B5C:  MOVF   2B,W
5B5E:  SUBLW  4F
5B60:  BC    5B9E
.................... lcd_putc("\fPor favor insira ");lcd_putc("\nO resistor   "); delay_ms(2000);} 
5B62:  CLRF   3A
5B64:  MOVF   3A,W
5B66:  CALL   0520
5B6A:  IORLW  00
5B6C:  BZ    5B78
5B6E:  INCF   3A,F
5B70:  MOVWF  48
5B72:  CALL   0BE6
5B76:  BRA    5B64
5B78:  CLRF   3A
5B7A:  MOVF   3A,W
5B7C:  CALL   0544
5B80:  IORLW  00
5B82:  BZ    5B8E
5B84:  INCF   3A,F
5B86:  MOVWF  48
5B88:  CALL   0BE6
5B8C:  BRA    5B7A
5B8E:  MOVLW  08
5B90:  MOVWF  3A
5B92:  MOVLW  FA
5B94:  MOVWF  49
5B96:  CALL   0A08
5B9A:  DECFSZ 3A,F
5B9C:  BRA    5B92
....................  
....................  
.................... if(leitura<62800){ 
5B9E:  MOVF   2C,W
5BA0:  SUBLW  F5
5BA2:  BTFSS  FD8.0
5BA4:  BRA    5F0A
5BA6:  BNZ   5BB0
5BA8:  MOVF   2B,W
5BAA:  SUBLW  4F
5BAC:  BTFSS  FD8.0
5BAE:  BRA    5F0A
....................  
.................... lcd_putc("\fFazendo a Leitura,  ");  
5BB0:  CLRF   3A
5BB2:  MOVF   3A,W
5BB4:  CALL   0564
5BB8:  IORLW  00
5BBA:  BZ    5BC6
5BBC:  INCF   3A,F
5BBE:  MOVWF  48
5BC0:  CALL   0BE6
5BC4:  BRA    5BB2
.................... lcd_putc("\nAguarde...          "); 
5BC6:  CLRF   3A
5BC8:  MOVF   3A,W
5BCA:  CALL   058A
5BCE:  IORLW  00
5BD0:  BZ    5BDC
5BD2:  INCF   3A,F
5BD4:  MOVWF  48
5BD6:  CALL   0BE6
5BDA:  BRA    5BC8
....................  
.................... if(x==0){ 
5BDC:  MOVF   05,F
5BDE:  BTFSS  FD8.2
5BE0:  BRA    5CE4
.................... output_low(c0); // desativo rel de verificao  
5BE2:  BCF    F94.0
5BE4:  BCF    F8B.0
.................... output_high(c3);  // ativa rel da primeira faixa 39 Mohm  
5BE6:  BCF    F94.3
5BE8:  BSF    F8B.3
.................... varredura; 
5BEA:  MOVLW  02
5BEC:  MOVWF  3A
5BEE:  MOVLW  FA
5BF0:  MOVWF  49
5BF2:  CALL   0A08
5BF6:  DECFSZ 3A,F
5BF8:  BRA    5BEE
.................... leitura=read_adc();  
5BFA:  BSF    FC2.2
5BFC:  BTFSC  FC2.2
5BFE:  BRA    5BFC
5C00:  MOVFF  FC3,2B
5C04:  MOVFF  FC4,2C
.................... delay_ms(1000); 
5C08:  MOVLW  04
5C0A:  MOVWF  3A
5C0C:  MOVLW  FA
5C0E:  MOVWF  49
5C10:  CALL   0A08
5C14:  DECFSZ 3A,F
5C16:  BRA    5C0C
....................                                     
....................                                    if(leitura >= 1600 && leitura <= 62800){ // terceira faixa 
5C18:  MOVF   2C,W
5C1A:  SUBLW  05
5C1C:  BC    5CE4
5C1E:  XORLW  FF
5C20:  BNZ   5C28
5C22:  MOVF   2B,W
5C24:  SUBLW  3F
5C26:  BC    5CE4
5C28:  MOVF   2C,W
5C2A:  SUBLW  F5
5C2C:  BNC   5CE4
5C2E:  BNZ   5C36
5C30:  MOVF   2B,W
5C32:  SUBLW  50
5C34:  BNC   5CE4
....................                                    mohm=1; kohm=0; 
5C36:  MOVLW  01
5C38:  MOVWF  1E
5C3A:  CLRF   1D
....................                                    k=subrotina(leitura,mohm,kohm);    //chama subrotina 
5C3C:  MOVFF  2C,3B
5C40:  MOVFF  2B,3A
5C44:  MOVFF  1E,3C
5C48:  MOVFF  1D,3D
5C4C:  CALL   0D6A
5C50:  MOVFF  03,30
5C54:  MOVFF  02,2F
5C58:  MOVFF  01,2E
5C5C:  MOVFF  00,2D
....................                                    printf(lcd_putc,"\f R= %1.1f Mohm",k); 
5C60:  CLRF   3A
5C62:  MOVF   3A,W
5C64:  CALL   05B0
5C68:  INCF   3A,F
5C6A:  MOVWF  00
5C6C:  MOVWF  48
5C6E:  CALL   0BE6
5C72:  MOVLW  05
5C74:  SUBWF  3A,W
5C76:  BNZ   5C62
5C78:  MOVLW  89
5C7A:  MOVWF  FE9
5C7C:  MOVFF  30,3E
5C80:  MOVFF  2F,3D
5C84:  MOVFF  2E,3C
5C88:  MOVFF  2D,3B
5C8C:  MOVLW  01
5C8E:  MOVWF  3F
5C90:  CALL   2C9C
5C94:  MOVLW  0A
5C96:  MOVWF  3B
5C98:  MOVF   3B,W
5C9A:  CALL   05B0
5C9E:  INCF   3B,F
5CA0:  MOVWF  00
5CA2:  MOVWF  48
5CA4:  CALL   0BE6
5CA8:  MOVLW  0F
5CAA:  SUBWF  3B,W
5CAC:  BNZ   5C98
....................                                    delay_ms(1500); 
5CAE:  MOVLW  06
5CB0:  MOVWF  3A
5CB2:  MOVLW  FA
5CB4:  MOVWF  49
5CB6:  CALL   0A08
5CBA:  DECFSZ 3A,F
5CBC:  BRA    5CB2
....................                                    achaoled();  
5CBE:  CALL   4EB6
....................                                    if(k!=0){x=1;} 
5CC2:  MOVFF  30,44
5CC6:  MOVFF  2F,43
5CCA:  MOVFF  2E,42
5CCE:  MOVFF  2D,41
5CD2:  CLRF   48
5CD4:  CLRF   47
5CD6:  CLRF   46
5CD8:  CLRF   45
5CDA:  CALL   3090
5CDE:  BZ    5CE4
5CE0:  MOVLW  01
5CE2:  MOVWF  05
....................                                    }} 
....................                                
.................... if(x==0){ 
5CE4:  MOVF   05,F
5CE6:  BTFSS  FD8.2
5CE8:  BRA    5DF4
.................... output_low(c3); 
5CEA:  BCF    F94.3
5CEC:  BCF    F8B.3
.................... output_high(c2); 
5CEE:  BCF    F94.2
5CF0:  BSF    F8B.2
.................... varredura; 
5CF2:  MOVLW  02
5CF4:  MOVWF  3A
5CF6:  MOVLW  FA
5CF8:  MOVWF  49
5CFA:  CALL   0A08
5CFE:  DECFSZ 3A,F
5D00:  BRA    5CF6
.................... leitura=read_adc(); delay_ms(1000); 
5D02:  BSF    FC2.2
5D04:  BTFSC  FC2.2
5D06:  BRA    5D04
5D08:  MOVFF  FC4,03
5D0C:  MOVFF  FC3,2B
5D10:  MOVFF  03,2C
5D14:  MOVLW  04
5D16:  MOVWF  3A
5D18:  MOVLW  FA
5D1A:  MOVWF  49
5D1C:  CALL   0A08
5D20:  DECFSZ 3A,F
5D22:  BRA    5D18
....................  
....................                                    if(leitura>= 1500 && leitura <= 62800){ // segunda faixa  
5D24:  MOVF   2C,W
5D26:  SUBLW  04
5D28:  BC    5DF4
5D2A:  XORLW  FF
5D2C:  BNZ   5D34
5D2E:  MOVF   2B,W
5D30:  SUBLW  DB
5D32:  BC    5DF4
5D34:  MOVF   2C,W
5D36:  SUBLW  F5
5D38:  BNC   5DF4
5D3A:  BNZ   5D42
5D3C:  MOVF   2B,W
5D3E:  SUBLW  50
5D40:  BNC   5DF4
....................                                    kohm=1; mohm=0; 
5D42:  MOVLW  01
5D44:  MOVWF  1D
5D46:  CLRF   1E
....................                                    k=subrotina(leitura,mohm,kohm);    //chama subrotina 
5D48:  MOVFF  2C,3B
5D4C:  MOVFF  2B,3A
5D50:  MOVFF  1E,3C
5D54:  MOVFF  1D,3D
5D58:  CALL   0D6A
5D5C:  MOVFF  03,30
5D60:  MOVFF  02,2F
5D64:  MOVFF  01,2E
5D68:  MOVFF  00,2D
....................                                    printf(lcd_putc,"\f R= %1.1f Kohm",k); delay_ms(1500); 
5D6C:  CLRF   3A
5D6E:  MOVF   3A,W
5D70:  CALL   05D0
5D74:  INCF   3A,F
5D76:  MOVWF  00
5D78:  MOVFF  00,48
5D7C:  CALL   0BE6
5D80:  MOVLW  05
5D82:  SUBWF  3A,W
5D84:  BNZ   5D6E
5D86:  MOVLW  89
5D88:  MOVWF  FE9
5D8A:  MOVFF  30,3E
5D8E:  MOVFF  2F,3D
5D92:  MOVFF  2E,3C
5D96:  MOVFF  2D,3B
5D9A:  MOVLW  01
5D9C:  MOVWF  3F
5D9E:  CALL   2C9C
5DA2:  MOVLW  0A
5DA4:  MOVWF  3B
5DA6:  MOVF   3B,W
5DA8:  CALL   05D0
5DAC:  INCF   3B,F
5DAE:  MOVWF  00
5DB0:  MOVFF  00,48
5DB4:  CALL   0BE6
5DB8:  MOVLW  0F
5DBA:  SUBWF  3B,W
5DBC:  BNZ   5DA6
5DBE:  MOVLW  06
5DC0:  MOVWF  3A
5DC2:  MOVLW  FA
5DC4:  MOVWF  49
5DC6:  CALL   0A08
5DCA:  DECFSZ 3A,F
5DCC:  BRA    5DC2
....................                                    achaoled(); 
5DCE:  CALL   4EB6
....................                                    if(k!=0){x=1;} 
5DD2:  MOVFF  30,44
5DD6:  MOVFF  2F,43
5DDA:  MOVFF  2E,42
5DDE:  MOVFF  2D,41
5DE2:  CLRF   48
5DE4:  CLRF   47
5DE6:  CLRF   46
5DE8:  CLRF   45
5DEA:  CALL   3090
5DEE:  BZ    5DF4
5DF0:  MOVLW  01
5DF2:  MOVWF  05
....................                                    }} 
.................... if(x==0){                                                                  
5DF4:  MOVF   05,F
5DF6:  BTFSS  FD8.2
5DF8:  BRA    5EE8
.................... output_low(c2); 
5DFA:  BCF    F94.2
5DFC:  BCF    F8B.2
.................... output_high(c1); 
5DFE:  BCF    F94.1
5E00:  BSF    F8B.1
.................... varredura; 
5E02:  MOVLW  02
5E04:  MOVWF  3A
5E06:  MOVLW  FA
5E08:  MOVWF  49
5E0A:  CALL   0A08
5E0E:  DECFSZ 3A,F
5E10:  BRA    5E06
.................... leitura=read_adc(); delay_ms(1000); leitura-=200; 
5E12:  BSF    FC2.2
5E14:  BTFSC  FC2.2
5E16:  BRA    5E14
5E18:  MOVFF  FC4,03
5E1C:  MOVFF  FC3,2B
5E20:  MOVFF  FC4,2C
5E24:  MOVLW  04
5E26:  MOVWF  3A
5E28:  MOVLW  FA
5E2A:  MOVWF  49
5E2C:  CALL   0A08
5E30:  DECFSZ 3A,F
5E32:  BRA    5E28
5E34:  MOVLW  C8
5E36:  SUBWF  2B,F
5E38:  MOVLW  00
5E3A:  SUBWFB 2C,F
....................  
....................                                    
....................                                    if(leitura >= 1600 && leitura <= 62800){ // primeira faixa 
5E3C:  MOVF   2C,W
5E3E:  SUBLW  05
5E40:  BC    5EE8
5E42:  XORLW  FF
5E44:  BNZ   5E4C
5E46:  MOVF   2B,W
5E48:  SUBLW  3F
5E4A:  BC    5EE8
5E4C:  MOVF   2C,W
5E4E:  SUBLW  F5
5E50:  BNC   5EE8
5E52:  BNZ   5E5A
5E54:  MOVF   2B,W
5E56:  SUBLW  50
5E58:  BNC   5EE8
....................                                    kohm=0; mohm=0; 
5E5A:  CLRF   1D
5E5C:  CLRF   1E
....................                                    k=subrotina(leitura,mohm,kohm);              //chama subrotina 
5E5E:  MOVFF  2C,3B
5E62:  MOVFF  2B,3A
5E66:  MOVFF  1E,3C
5E6A:  MOVFF  1D,3D
5E6E:  CALL   0D6A
5E72:  MOVFF  03,30
5E76:  MOVFF  02,2F
5E7A:  MOVFF  01,2E
5E7E:  MOVFF  00,2D
....................                                    printf(lcd_putc,"\f R= %1.1f Ohm",k); delay_ms(1500); 
5E82:  CLRF   3A
5E84:  MOVF   3A,W
5E86:  CALL   05F0
5E8A:  INCF   3A,F
5E8C:  MOVWF  00
5E8E:  MOVFF  00,48
5E92:  CALL   0BE6
5E96:  MOVLW  05
5E98:  SUBWF  3A,W
5E9A:  BNZ   5E84
5E9C:  MOVLW  89
5E9E:  MOVWF  FE9
5EA0:  MOVFF  30,3E
5EA4:  MOVFF  2F,3D
5EA8:  MOVFF  2E,3C
5EAC:  MOVFF  2D,3B
5EB0:  MOVLW  01
5EB2:  MOVWF  3F
5EB4:  CALL   2C9C
5EB8:  MOVLW  0A
5EBA:  MOVWF  3B
5EBC:  MOVF   3B,W
5EBE:  CALL   05F0
5EC2:  INCF   3B,F
5EC4:  MOVWF  00
5EC6:  MOVFF  00,48
5ECA:  CALL   0BE6
5ECE:  MOVLW  0E
5ED0:  SUBWF  3B,W
5ED2:  BNZ   5EBC
5ED4:  MOVLW  06
5ED6:  MOVWF  3A
5ED8:  MOVLW  FA
5EDA:  MOVWF  49
5EDC:  CALL   0A08
5EE0:  DECFSZ 3A,F
5EE2:  BRA    5ED8
....................                                    achaoled(); 
5EE4:  CALL   4EB6
....................                                    }} 
....................                                     
....................                                     
.................... output_low(c1); 
5EE8:  BCF    F94.1
5EEA:  BCF    F8B.1
.................... output_low(c2); 
5EEC:  BCF    F94.2
5EEE:  BCF    F8B.2
.................... output_low(c3); 
5EF0:  BCF    F94.3
5EF2:  BCF    F8B.3
.................... x=0;  
5EF4:  CLRF   05
.................... kohm=0;  
5EF6:  CLRF   1D
.................... mohm=0;  
5EF8:  CLRF   1E
.................... k=0;  
5EFA:  CLRF   30
5EFC:  CLRF   2F
5EFE:  CLRF   2E
5F00:  CLRF   2D
.................... delay_ms(50); 
5F02:  MOVLW  32
5F04:  MOVWF  49
5F06:  CALL   0A08
....................  
.................... } //Chave das varreduras   
.................... } //Chave do leitor 
.................... } //Chave do botoPRESS do leitor 
5F0A:  BRA    5AA2
....................  
....................  
.................... ////////////////////////// 
.................... /// Teclado matricial  /// 
.................... /// _|___|__|__        ///    
.................... ///| 1 | 2 | 3 |--     ///  
.................... ///| 4 | 5 | 6 |--     /// 
.................... ///| 7 | 8 | 9 |--     /// 
.................... ///| * | 0 | # |--     /// 
.................... ///|___________|       /// 
.................... ///                    ///   
.................... ////////////////////////// 
....................  
....................  
....................  
.................... lcd_putc("\f");  //limpa o lcd 
5F0C:  CLRF   3A
5F0E:  MOVF   3A,W
5F10:  CALL   03A2
5F14:  IORLW  00
5F16:  BZ    5F22
5F18:  INCF   3A,F
5F1A:  MOVWF  48
5F1C:  CALL   0BE6
5F20:  BRA    5F0E
....................  
.................... if(!input(pin_e1)){ 
5F22:  BSF    F96.1
5F24:  BTFSC  F84.1
5F26:  BRA    5F58
....................    w=0; 
5F28:  CLRF   0B
....................    j=0; 
5F2A:  CLRF   06
....................    teclado=0; 
5F2C:  CLRF   08
5F2E:  CLRF   07
....................    digito=0; 
5F30:  CLRF   0A
5F32:  CLRF   09
....................    w=0; 
5F34:  CLRF   0B
....................    unidade=0; 
5F36:  CLRF   0D
5F38:  CLRF   0C
....................    dezena=0; 
5F3A:  CLRF   0F
5F3C:  CLRF   0E
....................    dezena1=0; 
5F3E:  CLRF   13
5F40:  CLRF   12
5F42:  CLRF   11
5F44:  CLRF   10
....................    centena=0; 
5F46:  CLRF   15
5F48:  CLRF   14
....................    resultado=0; 
5F4A:  CLRF   17
5F4C:  CLRF   16
....................    resultado1=0; 
5F4E:  CLRF   1B
5F50:  CLRF   1A
5F52:  CLRF   19
5F54:  CLRF   18
....................    virgula=0;} 
5F56:  CLRF   1C
....................  
.................... while(input(pin_e1)){ //Buscar resistor 
5F58:  BSF    F96.1
5F5A:  BTFSS  F84.1
5F5C:  GOTO   685E
....................  
....................    if(w==0){ 
5F60:  MOVF   0B,F
5F62:  BNZ   5F98
....................             lcd_putc("\fNumero:              "); 
5F64:  CLRF   3A
5F66:  MOVF   3A,W
5F68:  CALL   0610
5F6C:  IORLW  00
5F6E:  BZ    5F7A
5F70:  INCF   3A,F
5F72:  MOVWF  48
5F74:  CALL   0BE6
5F78:  BRA    5F66
....................             lcd_putc("\n                     "); 
5F7A:  CLRF   3A
5F7C:  MOVF   3A,W
5F7E:  CALL   0638
5F82:  IORLW  00
5F84:  BZ    5F90
5F86:  INCF   3A,F
5F88:  MOVWF  48
5F8A:  CALL   0BE6
5F8E:  BRA    5F7C
....................             delay_ms(100);} 
5F90:  MOVLW  64
5F92:  MOVWF  49
5F94:  CALL   0A08
....................  
.................... output_high(pin_d7); //Ativa a primeira coluna do teclado 
5F98:  BCF    F95.7
5F9A:  BSF    F8C.7
.................... teclado=input_b();   //Atribui uma sada a uma variavel 
5F9C:  MOVLW  FF
5F9E:  MOVWF  F93
5FA0:  CLRF   08
5FA2:  MOVFF  F81,07
.................... teclado=teclado & 15;//AND com a variavel para liverar alguns ports da sada 
5FA6:  MOVLW  0F
5FA8:  ANDWF  07,F
5FAA:  CLRF   08
....................        
.................... //Recurso de "troca" da linguagem C       
.................... switch (teclado){ 
5FAC:  MOVFF  07,00
5FB0:  MOVF   08,W
5FB2:  MOVWF  03
5FB4:  BNZ   5FBC
5FB6:  MOVLW  01
5FB8:  SUBWF  00,W
5FBA:  BZ    5FDC
5FBC:  MOVF   03,W
5FBE:  BNZ   5FC6
5FC0:  MOVLW  02
5FC2:  SUBWF  00,W
5FC4:  BZ    5FE2
5FC6:  MOVF   03,W
5FC8:  BNZ   5FD0
5FCA:  MOVLW  04
5FCC:  SUBWF  00,W
5FCE:  BZ    5FEC
5FD0:  MOVF   03,W
5FD2:  BNZ   5FDA
5FD4:  MOVLW  08
5FD6:  SUBWF  00,W
5FD8:  BZ    5FF6
5FDA:  BRA    6000
.................... case 1:w=100;  // Caso o * seja pressionado atribui um valor a w 
5FDC:  MOVLW  64
5FDE:  MOVWF  0B
....................        break; 
5FE0:  BRA    6000
.................... case 2:digito=7; // Caso o 7 seja pressionado atribui um valor a w e a variavel digito 
5FE2:  CLRF   0A
5FE4:  MOVLW  07
5FE6:  MOVWF  09
....................        w++; 
5FE8:  INCF   0B,F
....................        break; 
5FEA:  BRA    6000
.................... case 4:digito=4; // Caso o 4 seja pressionado atribui um valor a w e a variavel digito 
5FEC:  CLRF   0A
5FEE:  MOVLW  04
5FF0:  MOVWF  09
....................        w++; 
5FF2:  INCF   0B,F
....................        break; 
5FF4:  BRA    6000
.................... case 8:digito=1; // Caso o 1 seja pressionado atribui um valor a w e a variavel digito 
5FF6:  CLRF   0A
5FF8:  MOVLW  01
5FFA:  MOVWF  09
....................        w++; 
5FFC:  INCF   0B,F
....................        break; 
5FFE:  BRA    6000
....................                 } 
....................     
.................... output_low(pin_d7);    // Desativa a primeira coluna   
6000:  BCF    F95.7
6002:  BCF    F8C.7
.................... output_high(pin_d6);  //Ativa a segunda coluna do teclado 
6004:  BCF    F95.6
6006:  BSF    F8C.6
.................... teclado=input_b(); 
6008:  MOVLW  FF
600A:  MOVWF  F93
600C:  CLRF   08
600E:  MOVFF  F81,07
.................... teclado=teclado & 15; 
6012:  MOVLW  0F
6014:  ANDWF  07,F
6016:  CLRF   08
....................  
.................... switch (teclado){ 
6018:  MOVFF  07,00
601C:  MOVF   08,W
601E:  MOVWF  03
6020:  BNZ   6028
6022:  MOVLW  01
6024:  SUBWF  00,W
6026:  BZ    6048
6028:  MOVF   03,W
602A:  BNZ   6032
602C:  MOVLW  02
602E:  SUBWF  00,W
6030:  BZ    6050
6032:  MOVF   03,W
6034:  BNZ   603C
6036:  MOVLW  04
6038:  SUBWF  00,W
603A:  BZ    605A
603C:  MOVF   03,W
603E:  BNZ   6046
6040:  MOVLW  08
6042:  SUBWF  00,W
6044:  BZ    6064
6046:  BRA    606E
.................... case 1:digito=0; //Atribui um valor a w e a variavel digito 
6048:  CLRF   0A
604A:  CLRF   09
....................        w++; 
604C:  INCF   0B,F
....................        break; 
604E:  BRA    606E
.................... case 2:digito=8; 
6050:  CLRF   0A
6052:  MOVLW  08
6054:  MOVWF  09
....................        w++; 
6056:  INCF   0B,F
....................        break; 
6058:  BRA    606E
.................... case 4:digito=5; 
605A:  CLRF   0A
605C:  MOVLW  05
605E:  MOVWF  09
....................        w++;    
6060:  INCF   0B,F
....................        break; 
6062:  BRA    606E
.................... case 8:digito=2; 
6064:  CLRF   0A
6066:  MOVLW  02
6068:  MOVWF  09
....................        w++;    
606A:  INCF   0B,F
....................        break;} 
606C:  BRA    606E
....................  
....................   
.................... output_low(pin_d6);   // Desativa a segunda coluna  
606E:  BCF    F95.6
6070:  BCF    F8C.6
.................... output_high(pin_d5);  //Ativa a terceira coluna do teclado 
6072:  BCF    F95.5
6074:  BSF    F8C.5
.................... teclado=input_b(); 
6076:  MOVLW  FF
6078:  MOVWF  F93
607A:  CLRF   08
607C:  MOVFF  F81,07
.................... teclado=teclado & 15; 
6080:  MOVLW  0F
6082:  ANDWF  07,F
6084:  CLRF   08
....................  
.................... switch (teclado){ 
6086:  MOVFF  07,00
608A:  MOVF   08,W
608C:  MOVWF  03
608E:  BNZ   6096
6090:  MOVLW  01
6092:  SUBWF  00,W
6094:  BZ    60B6
6096:  MOVF   03,W
6098:  BNZ   60A0
609A:  MOVLW  02
609C:  SUBWF  00,W
609E:  BZ    60BC
60A0:  MOVF   03,W
60A2:  BNZ   60AA
60A4:  MOVLW  04
60A6:  SUBWF  00,W
60A8:  BZ    60C6
60AA:  MOVF   03,W
60AC:  BNZ   60B4
60AE:  MOVLW  08
60B0:  SUBWF  00,W
60B2:  BZ    60D0
60B4:  BRA    60DA
.................... case 1:w=101;    // Caso o # seja pressionado atribui um valor a w 
60B6:  MOVLW  65
60B8:  MOVWF  0B
....................        break; 
60BA:  BRA    60DA
.................... case 2:digito=9; //Atribui um valor a w e a variavel digito 
60BC:  CLRF   0A
60BE:  MOVLW  09
60C0:  MOVWF  09
....................        w++; 
60C2:  INCF   0B,F
....................        break; 
60C4:  BRA    60DA
.................... case 4:digito=6; 
60C6:  CLRF   0A
60C8:  MOVLW  06
60CA:  MOVWF  09
....................        w++; 
60CC:  INCF   0B,F
....................        break; 
60CE:  BRA    60DA
.................... case 8:digito=3; 
60D0:  CLRF   0A
60D2:  MOVLW  03
60D4:  MOVWF  09
....................        w++; 
60D6:  INCF   0B,F
....................        break; } 
60D8:  BRA    60DA
....................  
.................... output_low(pin_d5); //Desativa a terceira coluna do teclado 
60DA:  BCF    F95.5
60DC:  BCF    F8C.5
....................   
.................... //A variavel W indica em que estapa do teclado o programa se encontra, caso ela 
.................... //seja 1, estamos nas casas das unidades, caso 2 na das dezenas , 3 centenas... 
....................  
.................... //No switch abaixo podemos notar o incremento de 1 em W toda vez que passa pelo 
.................... //case, por exemplo, digitamos 1 , ele atribui 1 a digito e entra no case 1 do W 
.................... //que atribui 2 e faz uma operao de escrita no LCD, como W vale 2 e no 1, o  
.................... //programa ao fazer o looping novamente, no entrar mais no case um, ou seja, 
.................... //evita possveis bugs e lentides no programa, e como tambm no existe case 2 
.................... //o programa s entrar no case novamente quando digitarmos outro nmero pois 
.................... //W valer 3 e entrar na operao das dezenas 
....................  
.................... switch(w){ 
60DE:  MOVF   0B,W
60E0:  XORLW  01
60E2:  BZ    60FC
60E4:  XORLW  02
60E6:  BZ    6180
60E8:  XORLW  06
60EA:  BTFSC  FD8.2
60EC:  BRA    62D4
60EE:  XORLW  61
60F0:  BTFSC  FD8.2
60F2:  BRA    6368
60F4:  XORLW  01
60F6:  BTFSC  FD8.2
60F8:  BRA    644C
60FA:  BRA    6530
.................... case 1: 
.................... //J  o flag da vrgula, caso ela exista o programa no executar esta operao 
....................        w++; 
60FC:  INCF   0B,F
....................        if(j==0){ 
60FE:  MOVF   06,F
6100:  BNZ   617E
....................        unidade=digito; 
6102:  MOVFF  0A,0D
6106:  MOVFF  09,0C
....................        resultado1=unidade; 
610A:  MOVFF  0D,42
610E:  MOVFF  0C,41
6112:  CALL   3106
6116:  MOVFF  03,1B
611A:  MOVFF  02,1A
611E:  MOVFF  01,19
6122:  MOVFF  00,18
....................        printf(lcd_putc,"\fNumero:%1.0f",resultado1); 
6126:  CLRF   3A
6128:  MOVF   3A,W
612A:  CALL   0660
612E:  INCF   3A,F
6130:  MOVWF  00
6132:  MOVWF  48
6134:  CALL   0BE6
6138:  MOVLW  08
613A:  SUBWF  3A,W
613C:  BNZ   6128
613E:  MOVLW  00
6140:  MOVWF  FE9
6142:  MOVFF  1B,3E
6146:  MOVFF  1A,3D
614A:  MOVFF  19,3C
614E:  MOVFF  18,3B
6152:  CLRF   3F
6154:  CALL   2C9C
....................        lcd_putc("\n                     "); 
6158:  CLRF   3A
615A:  MOVF   3A,W
615C:  CALL   0638
6160:  IORLW  00
6162:  BZ    616E
6164:  INCF   3A,F
6166:  MOVWF  48
6168:  CALL   0BE6
616C:  BRA    615A
....................        delay_ms(300);} 
616E:  MOVLW  02
6170:  MOVWF  3A
6172:  MOVLW  96
6174:  MOVWF  49
6176:  CALL   0A08
617A:  DECFSZ 3A,F
617C:  BRA    6172
....................        break; 
617E:  BRA    6530
....................                
.................... case 3: 
.................... //Algortimo para a escrita das dezenas 
....................  
....................        w++; 
6180:  INCF   0B,F
....................        dezena=(unidade*10)+digito; 
6182:  MOVFF  0D,3B
6186:  MOVFF  0C,3A
618A:  CLRF   3D
618C:  MOVLW  0A
618E:  MOVWF  3C
6190:  CALL   0D4C
6194:  MOVF   09,W
6196:  ADDWF  01,W
6198:  MOVWF  0E
619A:  MOVF   0A,W
619C:  ADDWFC 02,W
619E:  MOVWF  0F
....................        resultado1=dezena; 
61A0:  MOVFF  0F,42
61A4:  MOVFF  0E,41
61A8:  CALL   3106
61AC:  MOVFF  03,1B
61B0:  MOVFF  02,1A
61B4:  MOVFF  01,19
61B8:  MOVFF  00,18
....................        dezena1=dezena;    
61BC:  MOVFF  0F,42
61C0:  MOVFF  0E,41
61C4:  CALL   3106
61C8:  MOVFF  03,13
61CC:  MOVFF  02,12
61D0:  MOVFF  01,11
61D4:  MOVFF  00,10
....................         
....................        if(j==1){ 
61D8:  DECFSZ 06,W
61DA:  BRA    6276
....................        resultado1 = dezena1; 
61DC:  MOVFF  13,1B
61E0:  MOVFF  12,1A
61E4:  MOVFF  11,19
61E8:  MOVFF  10,18
....................        resultado1=resultado1/10; 
61EC:  MOVFF  1B,3D
61F0:  MOVFF  1A,3C
61F4:  MOVFF  19,3B
61F8:  MOVFF  18,3A
61FC:  CLRF   41
61FE:  CLRF   40
6200:  MOVLW  20
6202:  MOVWF  3F
6204:  MOVLW  82
6206:  MOVWF  3E
6208:  CALL   5038
620C:  MOVFF  03,1B
6210:  MOVFF  02,1A
6214:  MOVFF  01,19
6218:  MOVFF  00,18
....................        printf(lcd_putc,"\fNumero:%1.1f",resultado1); 
621C:  CLRF   3A
621E:  MOVF   3A,W
6220:  CALL   067E
6224:  INCF   3A,F
6226:  MOVWF  00
6228:  MOVWF  48
622A:  CALL   0BE6
622E:  MOVLW  08
6230:  SUBWF  3A,W
6232:  BNZ   621E
6234:  MOVLW  89
6236:  MOVWF  FE9
6238:  MOVFF  1B,3E
623C:  MOVFF  1A,3D
6240:  MOVFF  19,3C
6244:  MOVFF  18,3B
6248:  MOVLW  01
624A:  MOVWF  3F
624C:  CALL   2C9C
....................        lcd_putc("\n                     "); 
6250:  CLRF   3A
6252:  MOVF   3A,W
6254:  CALL   0638
6258:  IORLW  00
625A:  BZ    6266
625C:  INCF   3A,F
625E:  MOVWF  48
6260:  CALL   0BE6
6264:  BRA    6252
....................        delay_ms(300);} 
6266:  MOVLW  02
6268:  MOVWF  3A
626A:  MOVLW  96
626C:  MOVWF  49
626E:  CALL   0A08
6272:  DECFSZ 3A,F
6274:  BRA    626A
....................                
....................        if(j==0){ 
6276:  MOVF   06,F
6278:  BNZ   62D2
....................        printf(lcd_putc,"\fNumero:%1.0f",resultado1); 
627A:  CLRF   3A
627C:  MOVF   3A,W
627E:  CALL   0660
6282:  INCF   3A,F
6284:  MOVWF  00
6286:  MOVWF  48
6288:  CALL   0BE6
628C:  MOVLW  08
628E:  SUBWF  3A,W
6290:  BNZ   627C
6292:  MOVLW  00
6294:  MOVWF  FE9
6296:  MOVFF  1B,3E
629A:  MOVFF  1A,3D
629E:  MOVFF  19,3C
62A2:  MOVFF  18,3B
62A6:  CLRF   3F
62A8:  CALL   2C9C
....................        lcd_putc("\n                     "); 
62AC:  CLRF   3A
62AE:  MOVF   3A,W
62B0:  CALL   0638
62B4:  IORLW  00
62B6:  BZ    62C2
62B8:  INCF   3A,F
62BA:  MOVWF  48
62BC:  CALL   0BE6
62C0:  BRA    62AE
....................        delay_ms(300);} 
62C2:  MOVLW  02
62C4:  MOVWF  3A
62C6:  MOVLW  96
62C8:  MOVWF  49
62CA:  CALL   0A08
62CE:  DECFSZ 3A,F
62D0:  BRA    62C6
....................        break; 
62D2:  BRA    6530
....................                
.................... case 5: 
.................... //Algortimo para a escrita das centenas 
....................  
....................        centena=(dezena*10)+digito; 
62D4:  MOVFF  0F,3B
62D8:  MOVFF  0E,3A
62DC:  CLRF   3D
62DE:  MOVLW  0A
62E0:  MOVWF  3C
62E2:  CALL   0D4C
62E6:  MOVF   09,W
62E8:  ADDWF  01,W
62EA:  MOVWF  14
62EC:  MOVF   0A,W
62EE:  ADDWFC 02,W
62F0:  MOVWF  15
....................        resultado1=centena; 
62F2:  MOVFF  15,42
62F6:  MOVFF  14,41
62FA:  CALL   3106
62FE:  MOVFF  03,1B
6302:  MOVFF  02,1A
6306:  MOVFF  01,19
630A:  MOVFF  00,18
....................        printf(lcd_putc,"\fNumero:%1.0f",resultado1); 
630E:  CLRF   3A
6310:  MOVF   3A,W
6312:  CALL   0660
6316:  INCF   3A,F
6318:  MOVWF  00
631A:  MOVWF  48
631C:  CALL   0BE6
6320:  MOVLW  08
6322:  SUBWF  3A,W
6324:  BNZ   6310
6326:  MOVLW  00
6328:  MOVWF  FE9
632A:  MOVFF  1B,3E
632E:  MOVFF  1A,3D
6332:  MOVFF  19,3C
6336:  MOVFF  18,3B
633A:  CLRF   3F
633C:  CALL   2C9C
....................        lcd_putc("\n                     "); 
6340:  CLRF   3A
6342:  MOVF   3A,W
6344:  CALL   0638
6348:  IORLW  00
634A:  BZ    6356
634C:  INCF   3A,F
634E:  MOVWF  48
6350:  CALL   0BE6
6354:  BRA    6342
....................        delay_ms(300); 
6356:  MOVLW  02
6358:  MOVWF  3A
635A:  MOVLW  96
635C:  MOVWF  49
635E:  CALL   0A08
6362:  DECFSZ 3A,F
6364:  BRA    635A
....................        break; 
6366:  BRA    6530
....................        
.................... case 100: 
.................... //Algortimo para a escrita do multiplicador K 
....................  
....................          if(j==0){ 
6368:  MOVF   06,F
636A:  BNZ   63D8
....................          kohm=1; 
636C:  MOVLW  01
636E:  MOVWF  1D
....................          printf(lcd_putc, "\fNumero:%1.0f K", resultado1); 
6370:  CLRF   3A
6372:  MOVF   3A,W
6374:  CALL   069C
6378:  INCF   3A,F
637A:  MOVWF  00
637C:  MOVWF  48
637E:  CALL   0BE6
6382:  MOVLW  08
6384:  SUBWF  3A,W
6386:  BNZ   6372
6388:  MOVLW  00
638A:  MOVWF  FE9
638C:  MOVFF  1B,3E
6390:  MOVFF  1A,3D
6394:  MOVFF  19,3C
6398:  MOVFF  18,3B
639C:  CLRF   3F
639E:  CALL   2C9C
63A2:  MOVLW  20
63A4:  MOVWF  48
63A6:  CALL   0BE6
63AA:  MOVLW  4B
63AC:  MOVWF  48
63AE:  CALL   0BE6
....................          lcd_putc("\n                     "); 
63B2:  CLRF   3A
63B4:  MOVF   3A,W
63B6:  CALL   0638
63BA:  IORLW  00
63BC:  BZ    63C8
63BE:  INCF   3A,F
63C0:  MOVWF  48
63C2:  CALL   0BE6
63C6:  BRA    63B4
....................          delay_ms(300);} 
63C8:  MOVLW  02
63CA:  MOVWF  3A
63CC:  MOVLW  96
63CE:  MOVWF  49
63D0:  CALL   0A08
63D4:  DECFSZ 3A,F
63D6:  BRA    63CC
....................          if(j==1){ 
63D8:  DECFSZ 06,W
63DA:  BRA    644A
....................          kohm=1; 
63DC:  MOVLW  01
63DE:  MOVWF  1D
....................          printf(lcd_putc, "\fNumero:%1.1f K", resultado1); 
63E0:  CLRF   3A
63E2:  MOVF   3A,W
63E4:  CALL   06BC
63E8:  INCF   3A,F
63EA:  MOVWF  00
63EC:  MOVWF  48
63EE:  CALL   0BE6
63F2:  MOVLW  08
63F4:  SUBWF  3A,W
63F6:  BNZ   63E2
63F8:  MOVLW  89
63FA:  MOVWF  FE9
63FC:  MOVFF  1B,3E
6400:  MOVFF  1A,3D
6404:  MOVFF  19,3C
6408:  MOVFF  18,3B
640C:  MOVLW  01
640E:  MOVWF  3F
6410:  CALL   2C9C
6414:  MOVLW  20
6416:  MOVWF  48
6418:  CALL   0BE6
641C:  MOVLW  4B
641E:  MOVWF  48
6420:  CALL   0BE6
....................          lcd_putc("\n                     "); 
6424:  CLRF   3A
6426:  MOVF   3A,W
6428:  CALL   0638
642C:  IORLW  00
642E:  BZ    643A
6430:  INCF   3A,F
6432:  MOVWF  48
6434:  CALL   0BE6
6438:  BRA    6426
....................          delay_ms(300);} 
643A:  MOVLW  02
643C:  MOVWF  3A
643E:  MOVLW  96
6440:  MOVWF  49
6442:  CALL   0A08
6446:  DECFSZ 3A,F
6448:  BRA    643E
....................          break;  
644A:  BRA    6530
....................                   
.................... case 101:     
.................... //Algortimo para a escrita do multiplicador M 
....................  
....................          if(j==0){ 
644C:  MOVF   06,F
644E:  BNZ   64BC
....................          mohm=1; 
6450:  MOVLW  01
6452:  MOVWF  1E
....................          printf(lcd_putc, "\fNumero:%1.0f M", resultado1); 
6454:  CLRF   3A
6456:  MOVF   3A,W
6458:  CALL   06DC
645C:  INCF   3A,F
645E:  MOVWF  00
6460:  MOVWF  48
6462:  CALL   0BE6
6466:  MOVLW  08
6468:  SUBWF  3A,W
646A:  BNZ   6456
646C:  MOVLW  00
646E:  MOVWF  FE9
6470:  MOVFF  1B,3E
6474:  MOVFF  1A,3D
6478:  MOVFF  19,3C
647C:  MOVFF  18,3B
6480:  CLRF   3F
6482:  CALL   2C9C
6486:  MOVLW  20
6488:  MOVWF  48
648A:  CALL   0BE6
648E:  MOVLW  4D
6490:  MOVWF  48
6492:  CALL   0BE6
....................          lcd_putc("\n                     "); 
6496:  CLRF   3A
6498:  MOVF   3A,W
649A:  CALL   0638
649E:  IORLW  00
64A0:  BZ    64AC
64A2:  INCF   3A,F
64A4:  MOVWF  48
64A6:  CALL   0BE6
64AA:  BRA    6498
....................          delay_ms(300);} 
64AC:  MOVLW  02
64AE:  MOVWF  3A
64B0:  MOVLW  96
64B2:  MOVWF  49
64B4:  CALL   0A08
64B8:  DECFSZ 3A,F
64BA:  BRA    64B0
....................          if(j==1){ 
64BC:  DECFSZ 06,W
64BE:  BRA    652E
....................          mohm=1; 
64C0:  MOVLW  01
64C2:  MOVWF  1E
....................          printf(lcd_putc, "\fNumero:%1.1f M", resultado1); 
64C4:  CLRF   3A
64C6:  MOVF   3A,W
64C8:  CALL   06FC
64CC:  INCF   3A,F
64CE:  MOVWF  00
64D0:  MOVWF  48
64D2:  CALL   0BE6
64D6:  MOVLW  08
64D8:  SUBWF  3A,W
64DA:  BNZ   64C6
64DC:  MOVLW  89
64DE:  MOVWF  FE9
64E0:  MOVFF  1B,3E
64E4:  MOVFF  1A,3D
64E8:  MOVFF  19,3C
64EC:  MOVFF  18,3B
64F0:  MOVLW  01
64F2:  MOVWF  3F
64F4:  CALL   2C9C
64F8:  MOVLW  20
64FA:  MOVWF  48
64FC:  CALL   0BE6
6500:  MOVLW  4D
6502:  MOVWF  48
6504:  CALL   0BE6
....................          lcd_putc("\n                     "); 
6508:  CLRF   3A
650A:  MOVF   3A,W
650C:  CALL   0638
6510:  IORLW  00
6512:  BZ    651E
6514:  INCF   3A,F
6516:  MOVWF  48
6518:  CALL   0BE6
651C:  BRA    650A
....................          delay_ms(300);} 
651E:  MOVLW  02
6520:  MOVWF  3A
6522:  MOVLW  96
6524:  MOVWF  49
6526:  CALL   0A08
652A:  DECFSZ 3A,F
652C:  BRA    6522
....................          break; } 
652E:  BRA    6530
....................                                        
....................   
.................... //Esta condio atribiu um flag a varivel virgula 
....................  
.................... if(input(pin_B5)) 
6530:  BSF    F93.5
6532:  BTFSS  F81.5
6534:  BRA    653A
.................... {virgula=1;}        
6536:  MOVLW  01
6538:  MOVWF  1C
....................  
.................... //Esta condio verifica se o nmero digitado tem mais de uma casa decimal 
.................... //Caso no tenha o programa no adicionar a virgula 
....................  
.................... if(virgula == 1 && w == 2) 
653A:  DECFSZ 1C,W
653C:  BRA    65B0
653E:  MOVF   0B,W
6540:  SUBLW  02
6542:  BNZ   65B0
.................... {printf(lcd_putc, "\fNumero:%1.0f. ", resultado1); 
6544:  CLRF   3A
6546:  MOVF   3A,W
6548:  CALL   071C
654C:  INCF   3A,F
654E:  MOVWF  00
6550:  MOVWF  48
6552:  CALL   0BE6
6556:  MOVLW  08
6558:  SUBWF  3A,W
655A:  BNZ   6546
655C:  MOVLW  00
655E:  MOVWF  FE9
6560:  MOVFF  1B,3E
6564:  MOVFF  1A,3D
6568:  MOVFF  19,3C
656C:  MOVFF  18,3B
6570:  CLRF   3F
6572:  CALL   2C9C
6576:  MOVLW  2E
6578:  MOVWF  48
657A:  CALL   0BE6
657E:  MOVLW  20
6580:  MOVWF  48
6582:  CALL   0BE6
.................... lcd_putc("\n                     "); 
6586:  CLRF   3A
6588:  MOVF   3A,W
658A:  CALL   0638
658E:  IORLW  00
6590:  BZ    659C
6592:  INCF   3A,F
6594:  MOVWF  48
6596:  CALL   0BE6
659A:  BRA    6588
.................... delay_ms(300); 
659C:  MOVLW  02
659E:  MOVWF  3A
65A0:  MOVLW  96
65A2:  MOVWF  49
65A4:  CALL   0A08
65A8:  DECFSZ 3A,F
65AA:  BRA    65A0
.................... j=1;} 
65AC:  MOVLW  01
65AE:  MOVWF  06
....................           
....................    
.................... //Esta condio zera todas as variveis do teclado e escreve um  
.................... //"vazio" no lugar dos nmeros anteriormente digitados 
....................  
.................... if(input(pin_B6)){ 
65B0:  BSF    F93.6
65B2:  BTFSS  F81.6
65B4:  BRA    664A
....................    printf(lcd_putc,"\fNumero:  "); 
65B6:  CLRF   3A
65B8:  MOVF   3A,W
65BA:  CALL   073C
65BE:  INCF   3A,F
65C0:  MOVWF  00
65C2:  MOVWF  48
65C4:  CALL   0BE6
65C8:  MOVLW  0A
65CA:  SUBWF  3A,W
65CC:  BNZ   65B8
....................    lcd_putc("\n                     "); 
65CE:  CLRF   3A
65D0:  MOVF   3A,W
65D2:  CALL   0638
65D6:  IORLW  00
65D8:  BZ    65E4
65DA:  INCF   3A,F
65DC:  MOVWF  48
65DE:  CALL   0BE6
65E2:  BRA    65D0
....................    j=0; 
65E4:  CLRF   06
....................    teclado=0; 
65E6:  CLRF   08
65E8:  CLRF   07
....................    digito=0; 
65EA:  CLRF   0A
65EC:  CLRF   09
....................    w=0; 
65EE:  CLRF   0B
....................    unidade=0; 
65F0:  CLRF   0D
65F2:  CLRF   0C
....................    dezena=0; 
65F4:  CLRF   0F
65F6:  CLRF   0E
....................    dezena1=0; 
65F8:  CLRF   13
65FA:  CLRF   12
65FC:  CLRF   11
65FE:  CLRF   10
....................    centena=0; 
6600:  CLRF   15
6602:  CLRF   14
....................    resultado=0; 
6604:  CLRF   17
6606:  CLRF   16
....................    resultado1=0; 
6608:  CLRF   1B
660A:  CLRF   1A
660C:  CLRF   19
660E:  CLRF   18
....................    virgula=0; 
6610:  CLRF   1C
....................    kohm=0; 
6612:  CLRF   1D
....................    mohm=0; 
6614:  CLRF   1E
....................    y=0; 
6616:  CLRF   22
6618:  CLRF   21
661A:  CLRF   20
661C:  CLRF   1F
....................    valor=0; 
661E:  CLRF   26
6620:  CLRF   25
6622:  CLRF   24
6624:  CLRF   23
....................    valor1=0; 
6626:  CLRF   2A
6628:  CLRF   29
662A:  CLRF   28
662C:  CLRF   27
....................    v=0; 
662E:  CLRF   38
6630:  CLRF   37
6632:  CLRF   36
6634:  CLRF   35
....................    c=0; 
6636:  CLRF   34
....................    a=0; 
6638:  CLRF   39
....................    i = 0;  
663A:  CLRF   31
....................    d=0; 
663C:  CLRF   32
....................    if(i==0){printf("\0");}  
663E:  MOVF   31,F
6640:  BNZ   6642
....................    delay_ms(10); 
6642:  MOVLW  0A
6644:  MOVWF  49
6646:  CALL   0A08
.................... } 
....................  
....................  
.................... //Caso o usirio coloque 2 multiplicadores, recebe a instruo de apagar 
.................... if(kohm>=1 && mohm>=1){ 
664A:  MOVF   1D,W
664C:  SUBLW  00
664E:  BC    667C
6650:  MOVF   1E,W
6652:  SUBLW  00
6654:  BC    667C
.................... lcd_putc("\nPressione Deletar   "); 
6656:  CLRF   3A
6658:  MOVF   3A,W
665A:  CALL   0758
665E:  IORLW  00
6660:  BZ    666C
6662:  INCF   3A,F
6664:  MOVWF  48
6666:  CALL   0BE6
666A:  BRA    6658
.................... delay_ms(1000);} 
666C:  MOVLW  04
666E:  MOVWF  3A
6670:  MOVLW  FA
6672:  MOVWF  49
6674:  CALL   0A08
6678:  DECFSZ 3A,F
667A:  BRA    6670
....................  
.................... if(input(pin_b7)){ //Apertado Enter 
667C:  BSF    F93.7
667E:  BTFSS  F81.7
6680:  BRA    685A
....................  
....................    i=0; //Zera a varivel do lao FOR 
6682:  CLRF   31
....................    output_high(pin_b6); //Da um pulso na sada para zerar as gavetas 
6684:  BCF    F93.6
6686:  BSF    F8A.6
....................    delay_ms(100); 
6688:  MOVLW  64
668A:  MOVWF  49
668C:  CALL   0A08
....................    output_low(pin_b6); 
6690:  BCF    F93.6
6692:  BCF    F8A.6
....................    delay_ms(100); 
6694:  MOVLW  64
6696:  MOVWF  49
6698:  CALL   0A08
....................    if(i==0){printf("\0");} //Printa um nmero nulo para zerar o buffer 
669C:  MOVF   31,F
669E:  BNZ   66A0
....................    delay_ms(10); 
66A0:  MOVLW  0A
66A2:  MOVWF  49
66A4:  CALL   0A08
....................    v=resultado1;  //Coloca em V o resultado do teclado 
66A8:  MOVFF  1B,38
66AC:  MOVFF  1A,37
66B0:  MOVFF  19,36
66B4:  MOVFF  18,35
....................    v+=0.1; //Adiciona 0,1 para tirar erro do PIC 
66B8:  BCF    FD8.1
66BA:  MOVFF  38,3D
66BE:  MOVFF  37,3C
66C2:  MOVFF  36,3B
66C6:  MOVFF  35,3A
66CA:  MOVLW  CD
66CC:  MOVWF  41
66CE:  MOVLW  CC
66D0:  MOVWF  40
66D2:  MOVLW  4C
66D4:  MOVWF  3F
66D6:  MOVLW  7B
66D8:  MOVWF  3E
66DA:  CALL   2E26
66DE:  MOVFF  03,38
66E2:  MOVFF  02,37
66E6:  MOVFF  01,36
66EA:  MOVFF  00,35
....................    d=1;    //Ativa a FLAG da subrotina 
66EE:  MOVLW  01
66F0:  MOVWF  32
....................    c=eepromLER(v,kohm,mohm,d); //Chama a subrotina  
66F2:  MOVFF  38,3D
66F6:  MOVFF  37,3C
66FA:  MOVFF  36,3B
66FE:  MOVFF  35,3A
6702:  MOVFF  1D,3E
6706:  MOVFF  1E,3F
670A:  MOVFF  32,40
670E:  CALL   313C
6712:  MOVFF  03,3D
6716:  MOVFF  02,3C
671A:  MOVFF  01,3B
671E:  MOVFF  00,3A
6722:  CALL   4DEA
6726:  MOVFF  01,34
....................     
....................    if(c==0){lcd_putc("\fValor Desconhecido  ");lcd_putc("\nPressione Deletar   "); delay_ms(2000);} 
672A:  MOVF   34,F
672C:  BNZ   676A
672E:  CLRF   3A
6730:  MOVF   3A,W
6732:  CALL   077E
6736:  IORLW  00
6738:  BZ    6744
673A:  INCF   3A,F
673C:  MOVWF  48
673E:  CALL   0BE6
6742:  BRA    6730
6744:  CLRF   3A
6746:  MOVF   3A,W
6748:  CALL   0758
674C:  IORLW  00
674E:  BZ    675A
6750:  INCF   3A,F
6752:  MOVWF  48
6754:  CALL   0BE6
6758:  BRA    6746
675A:  MOVLW  08
675C:  MOVWF  3A
675E:  MOVLW  FA
6760:  MOVWF  49
6762:  CALL   0A08
6766:  DECFSZ 3A,F
6768:  BRA    675E
....................    //Se retornar 0  porque o valor digitado no existe,ou seja, no est no banco de dados 
....................     
....................    if(c!=0){ //Else if ou if diferente de 0 , caso o valor esteja armazenado 
676A:  MOVF   34,F
676C:  BTFSC  FD8.2
676E:  BRA    685A
....................       for(i=0;i<250;i++) //Lao de repetio para buscar dentro dos endereos de memoria 
6770:  CLRF   31
6772:  MOVF   31,W
6774:  SUBLW  F9
6776:  BNC   680C
....................       {  a=read_eeprom(i); //Joga o valor do endereo para dentro de A 
6778:  MOVFF  FF2,3A
677C:  BCF    FF2.7
677E:  MOVFF  31,FA9
6782:  BCF    FA6.6
6784:  BCF    FA6.7
6786:  BSF    FA6.0
6788:  MOVF   FA8,W
678A:  BTFSC  3A.7
678C:  BSF    FF2.7
678E:  MOVWF  39
....................          if(a==c){ //Quando A for igual a C (valor do banco de dados) 
6790:  MOVF   34,W
6792:  SUBWF  39,W
6794:  BNZ   6808
....................           
....................           IF(i<=25){putc(i); //Joga o valor do endereo pela porta serial se x for menor que 26 
6796:  MOVF   31,W
6798:  SUBLW  19
679A:  BNC   67B0
679C:  MOVF   31,W
679E:  BTFSS  F9E.4
67A0:  BRA    679E
67A2:  MOVWF  FAD
....................                     while(!kbhit()) {} //Aguarda a resposta do outro pic de que recebeu 
67A4:  BTFSC  F9E.5
67A6:  BRA    67AA
67A8:  BRA    67A4
....................                     getch(); //Pega dados pela porta serial   
67AA:  BTFSS  F9E.5
67AC:  BRA    67AA
67AE:  MOVF   FAE,W
....................                     } 
....................                      
....................   IF(i>=26 && i<=50){putc(i); //Joga o valor do endereo pela porta serial se x for menor que 51 
67B0:  MOVF   31,W
67B2:  SUBLW  19
67B4:  BC    67D0
67B6:  MOVF   31,W
67B8:  SUBLW  32
67BA:  BNC   67D0
67BC:  MOVF   31,W
67BE:  BTFSS  F9E.4
67C0:  BRA    67BE
67C2:  MOVWF  FAD
....................                     while(!kbhit()) {} //Aguarda a resposta do outro pic de que recebeu 
67C4:  BTFSC  F9E.5
67C6:  BRA    67CA
67C8:  BRA    67C4
....................                     getch();   //Pega dados pela porta serial   
67CA:  BTFSS  F9E.5
67CC:  BRA    67CA
67CE:  MOVF   FAE,W
....................                     } 
....................                      
....................              
....................             printf(lcd_putc,"\nCaixa= %u",i); //Mostra ao usurio em qual caixa est o resistor 
67D0:  CLRF   3A
67D2:  MOVF   3A,W
67D4:  CALL   0018
67D8:  INCF   3A,F
67DA:  MOVWF  00
67DC:  MOVWF  48
67DE:  CALL   0BE6
67E2:  MOVLW  08
67E4:  SUBWF  3A,W
67E6:  BNZ   67D2
67E8:  MOVFF  31,3B
67EC:  MOVLW  1B
67EE:  MOVWF  3C
67F0:  CALL   4E4A
....................             delay_ms(2000);  
67F4:  MOVLW  08
67F6:  MOVWF  3A
67F8:  MOVLW  FA
67FA:  MOVWF  49
67FC:  CALL   0A08
6800:  DECFSZ 3A,F
6802:  BRA    67F8
....................             i=251; //Sai do lao for pois acabou a busca pela caixa 
6804:  MOVLW  FB
6806:  MOVWF  31
....................             }} 
6808:  INCF   31,F
680A:  BRA    6772
....................           
....................          if(a!=c){ //Caso o PIC no encontre o valor em alguma caixa  porque no est armazenado 
680C:  MOVF   34,W
680E:  SUBWF  39,W
6810:  BZ    6854
....................          lcd_putc("\fCaixa nao Encontrada"); 
6812:  CLRF   3A
6814:  MOVF   3A,W
6816:  CALL   07A4
681A:  IORLW  00
681C:  BZ    6828
681E:  INCF   3A,F
6820:  MOVWF  48
6822:  CALL   0BE6
6826:  BRA    6814
....................          lcd_putc("\nValor nao Armazenado"); 
6828:  CLRF   3A
682A:  MOVF   3A,W
682C:  CALL   005C
6830:  IORLW  00
6832:  BZ    683E
6834:  INCF   3A,F
6836:  MOVWF  48
6838:  CALL   0BE6
683C:  BRA    682A
....................          delay_ms(1000); 
683E:  MOVLW  04
6840:  MOVWF  3A
6842:  MOVLW  FA
6844:  MOVWF  49
6846:  CALL   0A08
684A:  DECFSZ 3A,F
684C:  BRA    6842
....................           c=252; c=0;} //C diferente de A e zera em seguida para sair desse algoritimo 
684E:  MOVLW  FC
6850:  MOVWF  34
6852:  CLRF   34
....................  
.................... c=252; c=0; } //deixa C diferente de A e zera em seguida para sair desse algoritimo 
6854:  MOVLW  FC
6856:  MOVWF  34
6858:  CLRF   34
....................  
.................... } 
.................... } // while do botao 
685A:  GOTO   5F58
....................  
.................... if(input(pin_a2)){ //Programar a Caixa 
685E:  BSF    F92.2
6860:  BTFSS  F80.2
6862:  GOTO   76A4
....................  
.................... j=0; 
6866:  CLRF   06
.................... teclado=0; 
6868:  CLRF   08
686A:  CLRF   07
.................... digito=0; 
686C:  CLRF   0A
686E:  CLRF   09
.................... w=0; 
6870:  CLRF   0B
.................... unidade=0; 
6872:  CLRF   0D
6874:  CLRF   0C
.................... dezena=0; 
6876:  CLRF   0F
6878:  CLRF   0E
.................... dezena1=0; 
687A:  CLRF   13
687C:  CLRF   12
687E:  CLRF   11
6880:  CLRF   10
.................... centena=0; 
6882:  CLRF   15
6884:  CLRF   14
.................... resultado=0; 
6886:  CLRF   17
6888:  CLRF   16
.................... virgula=0; 
688A:  CLRF   1C
.................... kohm=0; 
688C:  CLRF   1D
.................... mohm=0; 
688E:  CLRF   1E
.................... y=0; 
6890:  CLRF   22
6892:  CLRF   21
6894:  CLRF   20
6896:  CLRF   1F
.................... valor=0; 
6898:  CLRF   26
689A:  CLRF   25
689C:  CLRF   24
689E:  CLRF   23
.................... valor1=0; 
68A0:  CLRF   2A
68A2:  CLRF   29
68A4:  CLRF   28
68A6:  CLRF   27
.................... c=0; 
68A8:  CLRF   34
.................... a=0; 
68AA:  CLRF   39
.................... i=0; 
68AC:  CLRF   31
....................  
.................... leitura=1; 
68AE:  CLRF   2C
68B0:  MOVLW  01
68B2:  MOVWF  2B
....................  
.................... lcd_putc("\f Valor:             ");  
68B4:  CLRF   3A
68B6:  MOVF   3A,W
68B8:  CALL   07CA
68BC:  IORLW  00
68BE:  BZ    68CA
68C0:  INCF   3A,F
68C2:  MOVWF  48
68C4:  CALL   0BE6
68C8:  BRA    68B6
.................... lcd_putc("\n Caixa:             "); 
68CA:  CLRF   3A
68CC:  MOVF   3A,W
68CE:  CALL   07F0
68D2:  IORLW  00
68D4:  BZ    68E0
68D6:  INCF   3A,F
68D8:  MOVWF  48
68DA:  CALL   0BE6
68DE:  BRA    68CC
.................... delay_ms(500); 
68E0:  MOVLW  02
68E2:  MOVWF  3A
68E4:  MOVLW  FA
68E6:  MOVWF  49
68E8:  CALL   0A08
68EC:  DECFSZ 3A,F
68EE:  BRA    68E4
....................  
.................... while(leitura==1) 
.................... {  
68F0:  DECFSZ 2B,W
68F2:  GOTO   7014
68F6:  MOVF   2C,F
68F8:  BTFSS  FD8.2
68FA:  GOTO   7014
....................  
.................... output_high(pin_d7); 
68FE:  BCF    F95.7
6900:  BSF    F8C.7
.................... teclado=input_b(); 
6902:  MOVLW  FF
6904:  MOVWF  F93
6906:  CLRF   08
6908:  MOVFF  F81,07
.................... teclado=teclado & 15; 
690C:  MOVLW  0F
690E:  ANDWF  07,F
6910:  CLRF   08
....................     
.................... switch (teclado){ 
6912:  MOVFF  07,00
6916:  MOVF   08,W
6918:  MOVWF  03
691A:  BNZ   6922
691C:  MOVLW  01
691E:  SUBWF  00,W
6920:  BZ    6942
6922:  MOVF   03,W
6924:  BNZ   692C
6926:  MOVLW  02
6928:  SUBWF  00,W
692A:  BZ    6948
692C:  MOVF   03,W
692E:  BNZ   6936
6930:  MOVLW  04
6932:  SUBWF  00,W
6934:  BZ    6952
6936:  MOVF   03,W
6938:  BNZ   6940
693A:  MOVLW  08
693C:  SUBWF  00,W
693E:  BZ    695C
6940:  BRA    6966
.................... case 1:w=100; 
6942:  MOVLW  64
6944:  MOVWF  0B
....................        break; 
6946:  BRA    6966
.................... case 2:digito=7; 
6948:  CLRF   0A
694A:  MOVLW  07
694C:  MOVWF  09
....................        w++; 
694E:  INCF   0B,F
....................        break; 
6950:  BRA    6966
.................... case 4:digito=4; 
6952:  CLRF   0A
6954:  MOVLW  04
6956:  MOVWF  09
....................        w++; 
6958:  INCF   0B,F
....................        break; 
695A:  BRA    6966
.................... case 8:digito=1; 
695C:  CLRF   0A
695E:  MOVLW  01
6960:  MOVWF  09
....................        w++; 
6962:  INCF   0B,F
....................        break;} 
6964:  BRA    6966
....................     
.................... output_low(pin_d7);    
6966:  BCF    F95.7
6968:  BCF    F8C.7
.................... output_high(pin_d6); 
696A:  BCF    F95.6
696C:  BSF    F8C.6
.................... teclado=input_b(); 
696E:  MOVLW  FF
6970:  MOVWF  F93
6972:  CLRF   08
6974:  MOVFF  F81,07
.................... teclado=teclado & 15; 
6978:  MOVLW  0F
697A:  ANDWF  07,F
697C:  CLRF   08
....................  
.................... switch (teclado){ 
697E:  MOVFF  07,00
6982:  MOVF   08,W
6984:  MOVWF  03
6986:  BNZ   698E
6988:  MOVLW  01
698A:  SUBWF  00,W
698C:  BZ    69AE
698E:  MOVF   03,W
6990:  BNZ   6998
6992:  MOVLW  02
6994:  SUBWF  00,W
6996:  BZ    69B6
6998:  MOVF   03,W
699A:  BNZ   69A2
699C:  MOVLW  04
699E:  SUBWF  00,W
69A0:  BZ    69C0
69A2:  MOVF   03,W
69A4:  BNZ   69AC
69A6:  MOVLW  08
69A8:  SUBWF  00,W
69AA:  BZ    69CA
69AC:  BRA    69D4
.................... case 1:digito=0; 
69AE:  CLRF   0A
69B0:  CLRF   09
....................        w++; 
69B2:  INCF   0B,F
....................        break; 
69B4:  BRA    69D4
.................... case 2:digito=8; 
69B6:  CLRF   0A
69B8:  MOVLW  08
69BA:  MOVWF  09
....................        w++; 
69BC:  INCF   0B,F
....................        break; 
69BE:  BRA    69D4
.................... case 4:digito=5; 
69C0:  CLRF   0A
69C2:  MOVLW  05
69C4:  MOVWF  09
....................        w++;    
69C6:  INCF   0B,F
....................        break; 
69C8:  BRA    69D4
.................... case 8:digito=2; 
69CA:  CLRF   0A
69CC:  MOVLW  02
69CE:  MOVWF  09
....................        w++;    
69D0:  INCF   0B,F
....................        break;} 
69D2:  BRA    69D4
....................  
....................   
.................... output_low(pin_d6); 
69D4:  BCF    F95.6
69D6:  BCF    F8C.6
.................... output_high(pin_d5); 
69D8:  BCF    F95.5
69DA:  BSF    F8C.5
.................... teclado=input_b(); 
69DC:  MOVLW  FF
69DE:  MOVWF  F93
69E0:  CLRF   08
69E2:  MOVFF  F81,07
.................... teclado=teclado & 15; 
69E6:  MOVLW  0F
69E8:  ANDWF  07,F
69EA:  CLRF   08
....................  
.................... switch (teclado){ 
69EC:  MOVFF  07,00
69F0:  MOVF   08,W
69F2:  MOVWF  03
69F4:  BNZ   69FC
69F6:  MOVLW  01
69F8:  SUBWF  00,W
69FA:  BZ    6A1C
69FC:  MOVF   03,W
69FE:  BNZ   6A06
6A00:  MOVLW  02
6A02:  SUBWF  00,W
6A04:  BZ    6A22
6A06:  MOVF   03,W
6A08:  BNZ   6A10
6A0A:  MOVLW  04
6A0C:  SUBWF  00,W
6A0E:  BZ    6A2C
6A10:  MOVF   03,W
6A12:  BNZ   6A1A
6A14:  MOVLW  08
6A16:  SUBWF  00,W
6A18:  BZ    6A36
6A1A:  BRA    6A40
.................... case 1:w=101; 
6A1C:  MOVLW  65
6A1E:  MOVWF  0B
....................        break; 
6A20:  BRA    6A40
.................... case 2:digito=9; 
6A22:  CLRF   0A
6A24:  MOVLW  09
6A26:  MOVWF  09
....................        w++; 
6A28:  INCF   0B,F
....................        break; 
6A2A:  BRA    6A40
.................... case 4:digito=6; 
6A2C:  CLRF   0A
6A2E:  MOVLW  06
6A30:  MOVWF  09
....................        w++; 
6A32:  INCF   0B,F
....................        break; 
6A34:  BRA    6A40
.................... case 8:digito=3; 
6A36:  CLRF   0A
6A38:  MOVLW  03
6A3A:  MOVWF  09
....................        w++; 
6A3C:  INCF   0B,F
....................        break; } 
6A3E:  BRA    6A40
....................  
.................... output_low(pin_d5); 
6A40:  BCF    F95.5
6A42:  BCF    F8C.5
....................   
....................   
....................   
.................... switch(w){ 
6A44:  MOVF   0B,W
6A46:  XORLW  01
6A48:  BZ    6A62
6A4A:  XORLW  02
6A4C:  BZ    6AF6
6A4E:  XORLW  06
6A50:  BTFSC  FD8.2
6A52:  BRA    6C6A
6A54:  XORLW  61
6A56:  BTFSC  FD8.2
6A58:  BRA    6D0E
6A5A:  XORLW  01
6A5C:  BTFSC  FD8.2
6A5E:  BRA    6DF2
6A60:  BRA    6ED6
.................... case 1:w++; 
6A62:  INCF   0B,F
....................        if(j==0){ 
6A64:  MOVF   06,F
6A66:  BNZ   6AF4
....................        unidade=digito; 
6A68:  MOVFF  0A,0D
6A6C:  MOVFF  09,0C
....................        resultado1=unidade;  v=resultado1; 
6A70:  MOVFF  0D,42
6A74:  MOVFF  0C,41
6A78:  CALL   3106
6A7C:  MOVFF  03,1B
6A80:  MOVFF  02,1A
6A84:  MOVFF  01,19
6A88:  MOVFF  00,18
6A8C:  MOVFF  1B,38
6A90:  MOVFF  1A,37
6A94:  MOVFF  19,36
6A98:  MOVFF  18,35
....................        printf(lcd_putc,"\f Valor:%1.0f",v); 
6A9C:  CLRF   3A
6A9E:  MOVF   3A,W
6AA0:  CALL   0816
6AA4:  INCF   3A,F
6AA6:  MOVWF  00
6AA8:  MOVWF  48
6AAA:  CALL   0BE6
6AAE:  MOVLW  08
6AB0:  SUBWF  3A,W
6AB2:  BNZ   6A9E
6AB4:  MOVLW  00
6AB6:  MOVWF  FE9
6AB8:  MOVFF  38,3E
6ABC:  MOVFF  37,3D
6AC0:  MOVFF  36,3C
6AC4:  MOVFF  35,3B
6AC8:  CLRF   3F
6ACA:  CALL   2C9C
....................        lcd_putc("\n Caixa:             "); 
6ACE:  CLRF   3A
6AD0:  MOVF   3A,W
6AD2:  CALL   07F0
6AD6:  IORLW  00
6AD8:  BZ    6AE4
6ADA:  INCF   3A,F
6ADC:  MOVWF  48
6ADE:  CALL   0BE6
6AE2:  BRA    6AD0
....................        delay_ms(300);} 
6AE4:  MOVLW  02
6AE6:  MOVWF  3A
6AE8:  MOVLW  96
6AEA:  MOVWF  49
6AEC:  CALL   0A08
6AF0:  DECFSZ 3A,F
6AF2:  BRA    6AE8
....................        break; 
6AF4:  BRA    6ED6
....................                
.................... case 3:w++; 
6AF6:  INCF   0B,F
....................        dezena=(unidade*10)+digito; 
6AF8:  MOVFF  0D,3B
6AFC:  MOVFF  0C,3A
6B00:  CLRF   3D
6B02:  MOVLW  0A
6B04:  MOVWF  3C
6B06:  CALL   0D4C
6B0A:  MOVF   09,W
6B0C:  ADDWF  01,W
6B0E:  MOVWF  0E
6B10:  MOVF   0A,W
6B12:  ADDWFC 02,W
6B14:  MOVWF  0F
....................        resultado1=dezena; 
6B16:  MOVFF  0F,42
6B1A:  MOVFF  0E,41
6B1E:  CALL   3106
6B22:  MOVFF  03,1B
6B26:  MOVFF  02,1A
6B2A:  MOVFF  01,19
6B2E:  MOVFF  00,18
....................        dezena1=dezena; 
6B32:  MOVFF  0F,42
6B36:  MOVFF  0E,41
6B3A:  CALL   3106
6B3E:  MOVFF  03,13
6B42:  MOVFF  02,12
6B46:  MOVFF  01,11
6B4A:  MOVFF  00,10
....................         
....................                
....................        if(j==1){ 
6B4E:  DECFSZ 06,W
6B50:  BRA    6BFC
....................        resultado1 = dezena1; 
6B52:  MOVFF  13,1B
6B56:  MOVFF  12,1A
6B5A:  MOVFF  11,19
6B5E:  MOVFF  10,18
....................        resultado1=resultado1/10; v=resultado1; 
6B62:  MOVFF  1B,3D
6B66:  MOVFF  1A,3C
6B6A:  MOVFF  19,3B
6B6E:  MOVFF  18,3A
6B72:  CLRF   41
6B74:  CLRF   40
6B76:  MOVLW  20
6B78:  MOVWF  3F
6B7A:  MOVLW  82
6B7C:  MOVWF  3E
6B7E:  CALL   5038
6B82:  MOVFF  03,1B
6B86:  MOVFF  02,1A
6B8A:  MOVFF  01,19
6B8E:  MOVFF  00,18
6B92:  MOVFF  1B,38
6B96:  MOVFF  1A,37
6B9A:  MOVFF  19,36
6B9E:  MOVFF  18,35
....................        printf(lcd_putc,"\f Valor:%1.1f",v); 
6BA2:  CLRF   3A
6BA4:  MOVF   3A,W
6BA6:  CALL   0834
6BAA:  INCF   3A,F
6BAC:  MOVWF  00
6BAE:  MOVWF  48
6BB0:  CALL   0BE6
6BB4:  MOVLW  08
6BB6:  SUBWF  3A,W
6BB8:  BNZ   6BA4
6BBA:  MOVLW  89
6BBC:  MOVWF  FE9
6BBE:  MOVFF  38,3E
6BC2:  MOVFF  37,3D
6BC6:  MOVFF  36,3C
6BCA:  MOVFF  35,3B
6BCE:  MOVLW  01
6BD0:  MOVWF  3F
6BD2:  CALL   2C9C
....................        lcd_putc("\n Caixa:             "); 
6BD6:  CLRF   3A
6BD8:  MOVF   3A,W
6BDA:  CALL   07F0
6BDE:  IORLW  00
6BE0:  BZ    6BEC
6BE2:  INCF   3A,F
6BE4:  MOVWF  48
6BE6:  CALL   0BE6
6BEA:  BRA    6BD8
....................        delay_ms(300);} 
6BEC:  MOVLW  02
6BEE:  MOVWF  3A
6BF0:  MOVLW  96
6BF2:  MOVWF  49
6BF4:  CALL   0A08
6BF8:  DECFSZ 3A,F
6BFA:  BRA    6BF0
....................                
....................        if(j==0){ v=resultado1; 
6BFC:  MOVF   06,F
6BFE:  BNZ   6C68
6C00:  MOVFF  1B,38
6C04:  MOVFF  1A,37
6C08:  MOVFF  19,36
6C0C:  MOVFF  18,35
....................        printf(lcd_putc,"\f Valor:%1.0f",v); 
6C10:  CLRF   3A
6C12:  MOVF   3A,W
6C14:  CALL   0816
6C18:  INCF   3A,F
6C1A:  MOVWF  00
6C1C:  MOVWF  48
6C1E:  CALL   0BE6
6C22:  MOVLW  08
6C24:  SUBWF  3A,W
6C26:  BNZ   6C12
6C28:  MOVLW  00
6C2A:  MOVWF  FE9
6C2C:  MOVFF  38,3E
6C30:  MOVFF  37,3D
6C34:  MOVFF  36,3C
6C38:  MOVFF  35,3B
6C3C:  CLRF   3F
6C3E:  CALL   2C9C
....................        lcd_putc("\n Caixa:             "); 
6C42:  CLRF   3A
6C44:  MOVF   3A,W
6C46:  CALL   07F0
6C4A:  IORLW  00
6C4C:  BZ    6C58
6C4E:  INCF   3A,F
6C50:  MOVWF  48
6C52:  CALL   0BE6
6C56:  BRA    6C44
....................        delay_ms(300);} 
6C58:  MOVLW  02
6C5A:  MOVWF  3A
6C5C:  MOVLW  96
6C5E:  MOVWF  49
6C60:  CALL   0A08
6C64:  DECFSZ 3A,F
6C66:  BRA    6C5C
....................        break; 
6C68:  BRA    6ED6
....................                
.................... case 5: 
....................        centena=(dezena*10)+digito; 
6C6A:  MOVFF  0F,3B
6C6E:  MOVFF  0E,3A
6C72:  CLRF   3D
6C74:  MOVLW  0A
6C76:  MOVWF  3C
6C78:  CALL   0D4C
6C7C:  MOVF   09,W
6C7E:  ADDWF  01,W
6C80:  MOVWF  14
6C82:  MOVF   0A,W
6C84:  ADDWFC 02,W
6C86:  MOVWF  15
....................        resultado1=centena; v=resultado1; 
6C88:  MOVFF  15,42
6C8C:  MOVFF  14,41
6C90:  CALL   3106
6C94:  MOVFF  03,1B
6C98:  MOVFF  02,1A
6C9C:  MOVFF  01,19
6CA0:  MOVFF  00,18
6CA4:  MOVFF  1B,38
6CA8:  MOVFF  1A,37
6CAC:  MOVFF  19,36
6CB0:  MOVFF  18,35
....................        printf(lcd_putc,"\f Valor:%1.0f",v); 
6CB4:  CLRF   3A
6CB6:  MOVF   3A,W
6CB8:  CALL   0816
6CBC:  INCF   3A,F
6CBE:  MOVWF  00
6CC0:  MOVWF  48
6CC2:  CALL   0BE6
6CC6:  MOVLW  08
6CC8:  SUBWF  3A,W
6CCA:  BNZ   6CB6
6CCC:  MOVLW  00
6CCE:  MOVWF  FE9
6CD0:  MOVFF  38,3E
6CD4:  MOVFF  37,3D
6CD8:  MOVFF  36,3C
6CDC:  MOVFF  35,3B
6CE0:  CLRF   3F
6CE2:  CALL   2C9C
....................        lcd_putc("\n Caixa:             "); 
6CE6:  CLRF   3A
6CE8:  MOVF   3A,W
6CEA:  CALL   07F0
6CEE:  IORLW  00
6CF0:  BZ    6CFC
6CF2:  INCF   3A,F
6CF4:  MOVWF  48
6CF6:  CALL   0BE6
6CFA:  BRA    6CE8
....................        delay_ms(300); 
6CFC:  MOVLW  02
6CFE:  MOVWF  3A
6D00:  MOVLW  96
6D02:  MOVWF  49
6D04:  CALL   0A08
6D08:  DECFSZ 3A,F
6D0A:  BRA    6D00
....................        break;  
6D0C:  BRA    6ED6
....................        
.................... case 100: 
....................          if(j==0){ 
6D0E:  MOVF   06,F
6D10:  BNZ   6D7E
....................          
....................          kohm=1; 
6D12:  MOVLW  01
6D14:  MOVWF  1D
....................          printf(lcd_putc, "\f Valor:%1.0f K",v); 
6D16:  CLRF   3A
6D18:  MOVF   3A,W
6D1A:  CALL   0852
6D1E:  INCF   3A,F
6D20:  MOVWF  00
6D22:  MOVWF  48
6D24:  CALL   0BE6
6D28:  MOVLW  08
6D2A:  SUBWF  3A,W
6D2C:  BNZ   6D18
6D2E:  MOVLW  00
6D30:  MOVWF  FE9
6D32:  MOVFF  38,3E
6D36:  MOVFF  37,3D
6D3A:  MOVFF  36,3C
6D3E:  MOVFF  35,3B
6D42:  CLRF   3F
6D44:  CALL   2C9C
6D48:  MOVLW  20
6D4A:  MOVWF  48
6D4C:  CALL   0BE6
6D50:  MOVLW  4B
6D52:  MOVWF  48
6D54:  CALL   0BE6
....................          lcd_putc("\n Caixa:             "); 
6D58:  CLRF   3A
6D5A:  MOVF   3A,W
6D5C:  CALL   07F0
6D60:  IORLW  00
6D62:  BZ    6D6E
6D64:  INCF   3A,F
6D66:  MOVWF  48
6D68:  CALL   0BE6
6D6C:  BRA    6D5A
....................          delay_ms(300);} 
6D6E:  MOVLW  02
6D70:  MOVWF  3A
6D72:  MOVLW  96
6D74:  MOVWF  49
6D76:  CALL   0A08
6D7A:  DECFSZ 3A,F
6D7C:  BRA    6D72
....................          if(j==1){ 
6D7E:  DECFSZ 06,W
6D80:  BRA    6DF0
....................    
....................          kohm=1; 
6D82:  MOVLW  01
6D84:  MOVWF  1D
....................          printf(lcd_putc, "\f Valor:%1.1f K",v); 
6D86:  CLRF   3A
6D88:  MOVF   3A,W
6D8A:  CALL   0872
6D8E:  INCF   3A,F
6D90:  MOVWF  00
6D92:  MOVWF  48
6D94:  CALL   0BE6
6D98:  MOVLW  08
6D9A:  SUBWF  3A,W
6D9C:  BNZ   6D88
6D9E:  MOVLW  89
6DA0:  MOVWF  FE9
6DA2:  MOVFF  38,3E
6DA6:  MOVFF  37,3D
6DAA:  MOVFF  36,3C
6DAE:  MOVFF  35,3B
6DB2:  MOVLW  01
6DB4:  MOVWF  3F
6DB6:  CALL   2C9C
6DBA:  MOVLW  20
6DBC:  MOVWF  48
6DBE:  CALL   0BE6
6DC2:  MOVLW  4B
6DC4:  MOVWF  48
6DC6:  CALL   0BE6
....................          lcd_putc("\n Caixa:             "); 
6DCA:  CLRF   3A
6DCC:  MOVF   3A,W
6DCE:  CALL   07F0
6DD2:  IORLW  00
6DD4:  BZ    6DE0
6DD6:  INCF   3A,F
6DD8:  MOVWF  48
6DDA:  CALL   0BE6
6DDE:  BRA    6DCC
....................          delay_ms(300);} 
6DE0:  MOVLW  02
6DE2:  MOVWF  3A
6DE4:  MOVLW  96
6DE6:  MOVWF  49
6DE8:  CALL   0A08
6DEC:  DECFSZ 3A,F
6DEE:  BRA    6DE4
....................          break;  
6DF0:  BRA    6ED6
....................                   
.................... case 101:if(j==0){         
6DF2:  MOVF   06,F
6DF4:  BNZ   6E62
....................          mohm=1; 
6DF6:  MOVLW  01
6DF8:  MOVWF  1E
....................          printf(lcd_putc, "\f Valor:%1.0f M",v); 
6DFA:  CLRF   3A
6DFC:  MOVF   3A,W
6DFE:  CALL   0892
6E02:  INCF   3A,F
6E04:  MOVWF  00
6E06:  MOVWF  48
6E08:  CALL   0BE6
6E0C:  MOVLW  08
6E0E:  SUBWF  3A,W
6E10:  BNZ   6DFC
6E12:  MOVLW  00
6E14:  MOVWF  FE9
6E16:  MOVFF  38,3E
6E1A:  MOVFF  37,3D
6E1E:  MOVFF  36,3C
6E22:  MOVFF  35,3B
6E26:  CLRF   3F
6E28:  CALL   2C9C
6E2C:  MOVLW  20
6E2E:  MOVWF  48
6E30:  CALL   0BE6
6E34:  MOVLW  4D
6E36:  MOVWF  48
6E38:  CALL   0BE6
....................          lcd_putc("\n Caixa:             "); 
6E3C:  CLRF   3A
6E3E:  MOVF   3A,W
6E40:  CALL   07F0
6E44:  IORLW  00
6E46:  BZ    6E52
6E48:  INCF   3A,F
6E4A:  MOVWF  48
6E4C:  CALL   0BE6
6E50:  BRA    6E3E
....................          delay_ms(300);} 
6E52:  MOVLW  02
6E54:  MOVWF  3A
6E56:  MOVLW  96
6E58:  MOVWF  49
6E5A:  CALL   0A08
6E5E:  DECFSZ 3A,F
6E60:  BRA    6E56
....................          if(j==1){ 
6E62:  DECFSZ 06,W
6E64:  BRA    6ED4
....................          mohm=1; 
6E66:  MOVLW  01
6E68:  MOVWF  1E
....................          printf(lcd_putc, "\f Valor:%1.1f M",v); 
6E6A:  CLRF   3A
6E6C:  MOVF   3A,W
6E6E:  CALL   08B2
6E72:  INCF   3A,F
6E74:  MOVWF  00
6E76:  MOVWF  48
6E78:  CALL   0BE6
6E7C:  MOVLW  08
6E7E:  SUBWF  3A,W
6E80:  BNZ   6E6C
6E82:  MOVLW  89
6E84:  MOVWF  FE9
6E86:  MOVFF  38,3E
6E8A:  MOVFF  37,3D
6E8E:  MOVFF  36,3C
6E92:  MOVFF  35,3B
6E96:  MOVLW  01
6E98:  MOVWF  3F
6E9A:  CALL   2C9C
6E9E:  MOVLW  20
6EA0:  MOVWF  48
6EA2:  CALL   0BE6
6EA6:  MOVLW  4D
6EA8:  MOVWF  48
6EAA:  CALL   0BE6
....................          lcd_putc("\n Caixa:             "); 
6EAE:  CLRF   3A
6EB0:  MOVF   3A,W
6EB2:  CALL   07F0
6EB6:  IORLW  00
6EB8:  BZ    6EC4
6EBA:  INCF   3A,F
6EBC:  MOVWF  48
6EBE:  CALL   0BE6
6EC2:  BRA    6EB0
....................          delay_ms(300);} 
6EC4:  MOVLW  02
6EC6:  MOVWF  3A
6EC8:  MOVLW  96
6ECA:  MOVWF  49
6ECC:  CALL   0A08
6ED0:  DECFSZ 3A,F
6ED2:  BRA    6EC8
....................          break; } 
6ED4:  BRA    6ED6
....................                                        
....................                      
.................... if(input(pin_B5)) 
6ED6:  BSF    F93.5
6ED8:  BTFSS  F81.5
6EDA:  BRA    6EE0
.................... {virgula=1;}        
6EDC:  MOVLW  01
6EDE:  MOVWF  1C
....................  
.................... if(virgula == 1 && w == 2) 
6EE0:  DECFSZ 1C,W
6EE2:  BRA    6F4E
6EE4:  MOVF   0B,W
6EE6:  SUBLW  02
6EE8:  BNZ   6F4E
.................... {printf(lcd_putc, "\f Valor:%1.0f. ",v); 
6EEA:  CLRF   3A
6EEC:  MOVF   3A,W
6EEE:  CALL   08D2
6EF2:  INCF   3A,F
6EF4:  MOVWF  00
6EF6:  MOVWF  48
6EF8:  CALL   0BE6
6EFC:  MOVLW  08
6EFE:  SUBWF  3A,W
6F00:  BNZ   6EEC
6F02:  MOVLW  00
6F04:  MOVWF  FE9
6F06:  MOVFF  38,3E
6F0A:  MOVFF  37,3D
6F0E:  MOVFF  36,3C
6F12:  MOVFF  35,3B
6F16:  CLRF   3F
6F18:  CALL   2C9C
6F1C:  MOVLW  2E
6F1E:  MOVWF  48
6F20:  CALL   0BE6
6F24:  MOVLW  20
6F26:  MOVWF  48
6F28:  CALL   0BE6
.................... lcd_putc("\n Caixa:             "); 
6F2C:  CLRF   3A
6F2E:  MOVF   3A,W
6F30:  CALL   07F0
6F34:  IORLW  00
6F36:  BZ    6F42
6F38:  INCF   3A,F
6F3A:  MOVWF  48
6F3C:  CALL   0BE6
6F40:  BRA    6F2E
.................... delay_ms(10); 
6F42:  MOVLW  0A
6F44:  MOVWF  49
6F46:  CALL   0A08
.................... j=1;} 
6F4A:  MOVLW  01
6F4C:  MOVWF  06
....................           
....................           
.................... if(input(pin_B6)){ 
6F4E:  BSF    F93.6
6F50:  BTFSS  F81.6
6F52:  BRA    6FD4
.................... lcd_putc("\f Valor:             "); 
6F54:  CLRF   3A
6F56:  MOVF   3A,W
6F58:  CALL   07CA
6F5C:  IORLW  00
6F5E:  BZ    6F6A
6F60:  INCF   3A,F
6F62:  MOVWF  48
6F64:  CALL   0BE6
6F68:  BRA    6F56
.................... lcd_putc("\n Caixa:             "); 
6F6A:  CLRF   3A
6F6C:  MOVF   3A,W
6F6E:  CALL   07F0
6F72:  IORLW  00
6F74:  BZ    6F80
6F76:  INCF   3A,F
6F78:  MOVWF  48
6F7A:  CALL   0BE6
6F7E:  BRA    6F6C
.................... j=0; 
6F80:  CLRF   06
.................... teclado=0; 
6F82:  CLRF   08
6F84:  CLRF   07
.................... digito=0; 
6F86:  CLRF   0A
6F88:  CLRF   09
.................... w=0; 
6F8A:  CLRF   0B
.................... unidade=0; 
6F8C:  CLRF   0D
6F8E:  CLRF   0C
.................... dezena=0; 
6F90:  CLRF   0F
6F92:  CLRF   0E
.................... dezena1=0; 
6F94:  CLRF   13
6F96:  CLRF   12
6F98:  CLRF   11
6F9A:  CLRF   10
.................... centena=0; 
6F9C:  CLRF   15
6F9E:  CLRF   14
.................... resultado=0; 
6FA0:  CLRF   17
6FA2:  CLRF   16
.................... resultado1=0; 
6FA4:  CLRF   1B
6FA6:  CLRF   1A
6FA8:  CLRF   19
6FAA:  CLRF   18
.................... virgula=0; 
6FAC:  CLRF   1C
.................... kohm=0; 
6FAE:  CLRF   1D
.................... mohm=0; 
6FB0:  CLRF   1E
.................... y=0; 
6FB2:  CLRF   22
6FB4:  CLRF   21
6FB6:  CLRF   20
6FB8:  CLRF   1F
.................... valor=0; 
6FBA:  CLRF   26
6FBC:  CLRF   25
6FBE:  CLRF   24
6FC0:  CLRF   23
.................... valor1=0; 
6FC2:  CLRF   2A
6FC4:  CLRF   29
6FC6:  CLRF   28
6FC8:  CLRF   27
.................... v=0; 
6FCA:  CLRF   38
6FCC:  CLRF   37
6FCE:  CLRF   36
6FD0:  CLRF   35
.................... c=0; 
6FD2:  CLRF   34
.................... } 
....................  
.................... if(kohm>=1 && mohm>=1){ 
6FD4:  MOVF   1D,W
6FD6:  SUBLW  00
6FD8:  BC    7006
6FDA:  MOVF   1E,W
6FDC:  SUBLW  00
6FDE:  BC    7006
.................... lcd_putc("\nPressione Deletar   "); 
6FE0:  CLRF   3A
6FE2:  MOVF   3A,W
6FE4:  CALL   0758
6FE8:  IORLW  00
6FEA:  BZ    6FF6
6FEC:  INCF   3A,F
6FEE:  MOVWF  48
6FF0:  CALL   0BE6
6FF4:  BRA    6FE2
.................... delay_ms(1000);} 
6FF6:  MOVLW  04
6FF8:  MOVWF  3A
6FFA:  MOVLW  FA
6FFC:  MOVWF  49
6FFE:  CALL   0A08
7002:  DECFSZ 3A,F
7004:  BRA    6FFA
....................  
.................... if(input(pin_b7)) { leitura++; } 
7006:  BSF    F93.7
7008:  BTFSS  F81.7
700A:  BRA    7012
700C:  INCF   2B,F
700E:  BTFSC  FD8.2
7010:  INCF   2C,F
....................  
.................... } 
7012:  BRA    68F0
....................  
.................... // as variaveis kohm e mohm dizem se  K ou se eh M 
.................... //RESULTADO ARMAZENADO EM V 
.................... /////////////////////////// 
.................... ////////////////////////// 
.................... ///////////////////////// 
.................... j=0; 
7014:  CLRF   06
.................... teclado=0; 
7016:  CLRF   08
7018:  CLRF   07
.................... digito=0; 
701A:  CLRF   0A
701C:  CLRF   09
.................... w=0; 
701E:  CLRF   0B
.................... unidade=0; 
7020:  CLRF   0D
7022:  CLRF   0C
.................... dezena=0; 
7024:  CLRF   0F
7026:  CLRF   0E
.................... dezena1=0; 
7028:  CLRF   13
702A:  CLRF   12
702C:  CLRF   11
702E:  CLRF   10
.................... centena=0; 
7030:  CLRF   15
7032:  CLRF   14
.................... resultado=0; 
7034:  CLRF   17
7036:  CLRF   16
.................... resultado1=0; 
7038:  CLRF   1B
703A:  CLRF   1A
703C:  CLRF   19
703E:  CLRF   18
.................... virgula=0; 
7040:  CLRF   1C
.................... y=0; 
7042:  CLRF   22
7044:  CLRF   21
7046:  CLRF   20
7048:  CLRF   1F
.................... valor=0; 
704A:  CLRF   26
704C:  CLRF   25
704E:  CLRF   24
7050:  CLRF   23
.................... valor1=0; 
7052:  CLRF   2A
7054:  CLRF   29
7056:  CLRF   28
7058:  CLRF   27
.................... c=0; 
705A:  CLRF   34
....................  
.................... if(kohm==0 && mohm==0) { 
705C:  MOVF   1D,F
705E:  BNZ   70D8
7060:  MOVF   1E,F
7062:  BNZ   70D8
.................... printf(lcd_putc,"\f Valor:%1.1f Ohm",v);lcd_putc("\n Caixa:             "); 
7064:  CLRF   3A
7066:  MOVF   3A,W
7068:  CALL   08F2
706C:  INCF   3A,F
706E:  MOVWF  00
7070:  MOVWF  48
7072:  CALL   0BE6
7076:  MOVLW  08
7078:  SUBWF  3A,W
707A:  BNZ   7066
707C:  MOVLW  89
707E:  MOVWF  FE9
7080:  MOVFF  38,3E
7084:  MOVFF  37,3D
7088:  MOVFF  36,3C
708C:  MOVFF  35,3B
7090:  MOVLW  01
7092:  MOVWF  3F
7094:  CALL   2C9C
7098:  MOVLW  0D
709A:  MOVWF  3B
709C:  MOVF   3B,W
709E:  CALL   08F2
70A2:  INCF   3B,F
70A4:  MOVWF  00
70A6:  MOVWF  48
70A8:  CALL   0BE6
70AC:  MOVLW  11
70AE:  SUBWF  3B,W
70B0:  BNZ   709C
70B2:  CLRF   3A
70B4:  MOVF   3A,W
70B6:  CALL   07F0
70BA:  IORLW  00
70BC:  BZ    70C8
70BE:  INCF   3A,F
70C0:  MOVWF  48
70C2:  CALL   0BE6
70C6:  BRA    70B4
.................... delay_ms(1000);} 
70C8:  MOVLW  04
70CA:  MOVWF  3A
70CC:  MOVLW  FA
70CE:  MOVWF  49
70D0:  CALL   0A08
70D4:  DECFSZ 3A,F
70D6:  BRA    70CC
....................  
.................... if(kohm==1 && mohm==0) { 
70D8:  DECFSZ 1D,W
70DA:  BRA    7154
70DC:  MOVF   1E,F
70DE:  BNZ   7154
.................... printf(lcd_putc,"\f Valor:%1.1f Kohm",v);lcd_putc("\n Caixa:             "); 
70E0:  CLRF   3A
70E2:  MOVF   3A,W
70E4:  CALL   0914
70E8:  INCF   3A,F
70EA:  MOVWF  00
70EC:  MOVWF  48
70EE:  CALL   0BE6
70F2:  MOVLW  08
70F4:  SUBWF  3A,W
70F6:  BNZ   70E2
70F8:  MOVLW  89
70FA:  MOVWF  FE9
70FC:  MOVFF  38,3E
7100:  MOVFF  37,3D
7104:  MOVFF  36,3C
7108:  MOVFF  35,3B
710C:  MOVLW  01
710E:  MOVWF  3F
7110:  CALL   2C9C
7114:  MOVLW  0D
7116:  MOVWF  3B
7118:  MOVF   3B,W
711A:  CALL   0914
711E:  INCF   3B,F
7120:  MOVWF  00
7122:  MOVWF  48
7124:  CALL   0BE6
7128:  MOVLW  12
712A:  SUBWF  3B,W
712C:  BNZ   7118
712E:  CLRF   3A
7130:  MOVF   3A,W
7132:  CALL   07F0
7136:  IORLW  00
7138:  BZ    7144
713A:  INCF   3A,F
713C:  MOVWF  48
713E:  CALL   0BE6
7142:  BRA    7130
.................... delay_ms(1000);} 
7144:  MOVLW  04
7146:  MOVWF  3A
7148:  MOVLW  FA
714A:  MOVWF  49
714C:  CALL   0A08
7150:  DECFSZ 3A,F
7152:  BRA    7148
....................  
.................... if(kohm==0 && mohm==1) { 
7154:  MOVF   1D,F
7156:  BNZ   71D0
7158:  DECFSZ 1E,W
715A:  BRA    71D0
.................... printf(lcd_putc,"\f Valor:%1.1f Mohm",v);lcd_putc("\n Caixa:             "); 
715C:  CLRF   3A
715E:  MOVF   3A,W
7160:  CALL   0938
7164:  INCF   3A,F
7166:  MOVWF  00
7168:  MOVWF  48
716A:  CALL   0BE6
716E:  MOVLW  08
7170:  SUBWF  3A,W
7172:  BNZ   715E
7174:  MOVLW  89
7176:  MOVWF  FE9
7178:  MOVFF  38,3E
717C:  MOVFF  37,3D
7180:  MOVFF  36,3C
7184:  MOVFF  35,3B
7188:  MOVLW  01
718A:  MOVWF  3F
718C:  CALL   2C9C
7190:  MOVLW  0D
7192:  MOVWF  3B
7194:  MOVF   3B,W
7196:  CALL   0938
719A:  INCF   3B,F
719C:  MOVWF  00
719E:  MOVWF  48
71A0:  CALL   0BE6
71A4:  MOVLW  12
71A6:  SUBWF  3B,W
71A8:  BNZ   7194
71AA:  CLRF   3A
71AC:  MOVF   3A,W
71AE:  CALL   07F0
71B2:  IORLW  00
71B4:  BZ    71C0
71B6:  INCF   3A,F
71B8:  MOVWF  48
71BA:  CALL   0BE6
71BE:  BRA    71AC
.................... delay_ms(1000);} 
71C0:  MOVLW  04
71C2:  MOVWF  3A
71C4:  MOVLW  FA
71C6:  MOVWF  49
71C8:  CALL   0A08
71CC:  DECFSZ 3A,F
71CE:  BRA    71C4
....................  
.................... while(leitura==2) { 
71D0:  MOVF   2B,W
71D2:  SUBLW  02
71D4:  BTFSS  FD8.2
71D6:  BRA    761A
71D8:  MOVF   2C,F
71DA:  BTFSS  FD8.2
71DC:  BRA    761A
....................  
.................... output_high(pin_d7); 
71DE:  BCF    F95.7
71E0:  BSF    F8C.7
.................... teclado=input_b(); 
71E2:  MOVLW  FF
71E4:  MOVWF  F93
71E6:  CLRF   08
71E8:  MOVFF  F81,07
.................... teclado=teclado & 15; 
71EC:  MOVLW  0F
71EE:  ANDWF  07,F
71F0:  CLRF   08
....................     
.................... switch (teclado){ 
71F2:  MOVFF  07,00
71F6:  MOVF   08,W
71F8:  MOVWF  03
71FA:  BNZ   7202
71FC:  MOVLW  02
71FE:  SUBWF  00,W
7200:  BZ    7218
7202:  MOVF   03,W
7204:  BNZ   720C
7206:  MOVLW  04
7208:  SUBWF  00,W
720A:  BZ    7222
720C:  MOVF   03,W
720E:  BNZ   7216
7210:  MOVLW  08
7212:  SUBWF  00,W
7214:  BZ    722C
7216:  BRA    7236
.................... case 2:digito=7; 
7218:  CLRF   0A
721A:  MOVLW  07
721C:  MOVWF  09
....................        w++; 
721E:  INCF   0B,F
....................        break; 
7220:  BRA    7236
.................... case 4:digito=4; 
7222:  CLRF   0A
7224:  MOVLW  04
7226:  MOVWF  09
....................        w++; 
7228:  INCF   0B,F
....................        break; 
722A:  BRA    7236
.................... case 8:digito=1;  
722C:  CLRF   0A
722E:  MOVLW  01
7230:  MOVWF  09
....................        w++; 
7232:  INCF   0B,F
....................        break;} 
7234:  BRA    7236
....................     
.................... output_low(pin_d7);    
7236:  BCF    F95.7
7238:  BCF    F8C.7
.................... output_high(pin_d6); 
723A:  BCF    F95.6
723C:  BSF    F8C.6
.................... teclado=input_b(); 
723E:  MOVLW  FF
7240:  MOVWF  F93
7242:  CLRF   08
7244:  MOVFF  F81,07
.................... teclado=teclado & 15; 
7248:  MOVLW  0F
724A:  ANDWF  07,F
724C:  CLRF   08
....................  
.................... switch (teclado){ 
724E:  MOVFF  07,00
7252:  MOVF   08,W
7254:  MOVWF  03
7256:  BNZ   725E
7258:  MOVLW  01
725A:  SUBWF  00,W
725C:  BZ    727E
725E:  MOVF   03,W
7260:  BNZ   7268
7262:  MOVLW  02
7264:  SUBWF  00,W
7266:  BZ    7286
7268:  MOVF   03,W
726A:  BNZ   7272
726C:  MOVLW  04
726E:  SUBWF  00,W
7270:  BZ    7290
7272:  MOVF   03,W
7274:  BNZ   727C
7276:  MOVLW  08
7278:  SUBWF  00,W
727A:  BZ    729A
727C:  BRA    72A4
.................... case 1:digito=0; 
727E:  CLRF   0A
7280:  CLRF   09
....................        w++; 
7282:  INCF   0B,F
....................        break; 
7284:  BRA    72A4
.................... case 2:digito=8; 
7286:  CLRF   0A
7288:  MOVLW  08
728A:  MOVWF  09
....................        w++; 
728C:  INCF   0B,F
....................        break; 
728E:  BRA    72A4
.................... case 4:digito=5;  
7290:  CLRF   0A
7292:  MOVLW  05
7294:  MOVWF  09
....................        w++;   
7296:  INCF   0B,F
....................        break; 
7298:  BRA    72A4
.................... case 8:digito=2;  
729A:  CLRF   0A
729C:  MOVLW  02
729E:  MOVWF  09
....................        w++;   
72A0:  INCF   0B,F
....................        break;} 
72A2:  BRA    72A4
....................  
....................   
.................... output_low(pin_d6); 
72A4:  BCF    F95.6
72A6:  BCF    F8C.6
.................... output_high(pin_d5); 
72A8:  BCF    F95.5
72AA:  BSF    F8C.5
.................... teclado=input_b(); 
72AC:  MOVLW  FF
72AE:  MOVWF  F93
72B0:  CLRF   08
72B2:  MOVFF  F81,07
.................... teclado=teclado & 15; 
72B6:  MOVLW  0F
72B8:  ANDWF  07,F
72BA:  CLRF   08
....................  
.................... switch (teclado){ 
72BC:  MOVFF  07,00
72C0:  MOVF   08,W
72C2:  MOVWF  03
72C4:  BNZ   72CC
72C6:  MOVLW  02
72C8:  SUBWF  00,W
72CA:  BZ    72E2
72CC:  MOVF   03,W
72CE:  BNZ   72D6
72D0:  MOVLW  04
72D2:  SUBWF  00,W
72D4:  BZ    72EC
72D6:  MOVF   03,W
72D8:  BNZ   72E0
72DA:  MOVLW  08
72DC:  SUBWF  00,W
72DE:  BZ    72F6
72E0:  BRA    7300
.................... case 2:digito=9;  
72E2:  CLRF   0A
72E4:  MOVLW  09
72E6:  MOVWF  09
....................        w++; 
72E8:  INCF   0B,F
....................        break; 
72EA:  BRA    7300
.................... case 4:digito=6;  
72EC:  CLRF   0A
72EE:  MOVLW  06
72F0:  MOVWF  09
....................        w++; 
72F2:  INCF   0B,F
....................        break; 
72F4:  BRA    7300
.................... case 8:digito=3;  
72F6:  CLRF   0A
72F8:  MOVLW  03
72FA:  MOVWF  09
....................        w++; 
72FC:  INCF   0B,F
....................        break;} 
72FE:  BRA    7300
....................  
.................... output_low(pin_d5); 
7300:  BCF    F95.5
7302:  BCF    F8C.5
....................  
....................  
.................... switch(w){ 
7304:  MOVF   0B,W
7306:  XORLW  01
7308:  BZ    7314
730A:  XORLW  02
730C:  BZ    736C
730E:  XORLW  06
7310:  BZ    73DA
7312:  BRA    7446
.................... case 1:w++;  
7314:  INCF   0B,F
....................         unidade=digito; 
7316:  MOVFF  0A,0D
731A:  MOVFF  09,0C
....................         valor=digito ; 
731E:  CLRF   26
7320:  CLRF   25
7322:  MOVFF  0A,24
7326:  MOVFF  09,23
....................         printf(lcd_putc,"\n Caixa:%lu",valor); 
732A:  CLRF   3A
732C:  MOVF   3A,W
732E:  CALL   095C
7332:  INCF   3A,F
7334:  MOVWF  00
7336:  MOVWF  48
7338:  CALL   0BE6
733C:  MOVLW  08
733E:  SUBWF  3A,W
7340:  BNZ   732C
7342:  MOVLW  41
7344:  MOVWF  FE9
7346:  MOVFF  26,3E
734A:  MOVFF  25,3D
734E:  MOVFF  24,3C
7352:  MOVFF  23,3B
7356:  CALL   0CA2
....................         delay_ms(300); 
735A:  MOVLW  02
735C:  MOVWF  3A
735E:  MOVLW  96
7360:  MOVWF  49
7362:  CALL   0A08
7366:  DECFSZ 3A,F
7368:  BRA    735E
....................         break; 
736A:  BRA    7446
....................  
.................... case 3:w++; 
736C:  INCF   0B,F
....................        dezena=(unidade*10)+digito; 
736E:  MOVFF  0D,3B
7372:  MOVFF  0C,3A
7376:  CLRF   3D
7378:  MOVLW  0A
737A:  MOVWF  3C
737C:  CALL   0D4C
7380:  MOVF   09,W
7382:  ADDWF  01,W
7384:  MOVWF  0E
7386:  MOVF   0A,W
7388:  ADDWFC 02,W
738A:  MOVWF  0F
....................        valor=dezena; 
738C:  CLRF   26
738E:  CLRF   25
7390:  MOVFF  0F,24
7394:  MOVFF  0E,23
....................        printf(lcd_putc,"\n Caixa:%lu",valor); 
7398:  CLRF   3A
739A:  MOVF   3A,W
739C:  CALL   095C
73A0:  INCF   3A,F
73A2:  MOVWF  00
73A4:  MOVWF  48
73A6:  CALL   0BE6
73AA:  MOVLW  08
73AC:  SUBWF  3A,W
73AE:  BNZ   739A
73B0:  MOVLW  41
73B2:  MOVWF  FE9
73B4:  MOVFF  26,3E
73B8:  MOVFF  25,3D
73BC:  MOVFF  24,3C
73C0:  MOVFF  23,3B
73C4:  CALL   0CA2
....................        delay_ms(300); 
73C8:  MOVLW  02
73CA:  MOVWF  3A
73CC:  MOVLW  96
73CE:  MOVWF  49
73D0:  CALL   0A08
73D4:  DECFSZ 3A,F
73D6:  BRA    73CC
....................        break; 
73D8:  BRA    7446
....................    
.................... case 5: 
....................        centena=(dezena*10)+digito; 
73DA:  MOVFF  0F,3B
73DE:  MOVFF  0E,3A
73E2:  CLRF   3D
73E4:  MOVLW  0A
73E6:  MOVWF  3C
73E8:  CALL   0D4C
73EC:  MOVF   09,W
73EE:  ADDWF  01,W
73F0:  MOVWF  14
73F2:  MOVF   0A,W
73F4:  ADDWFC 02,W
73F6:  MOVWF  15
....................        valor=centena; 
73F8:  CLRF   26
73FA:  CLRF   25
73FC:  MOVFF  15,24
7400:  MOVFF  14,23
....................        printf(lcd_putc,"\n Caixa:%lu",valor); 
7404:  CLRF   3A
7406:  MOVF   3A,W
7408:  CALL   095C
740C:  INCF   3A,F
740E:  MOVWF  00
7410:  MOVWF  48
7412:  CALL   0BE6
7416:  MOVLW  08
7418:  SUBWF  3A,W
741A:  BNZ   7406
741C:  MOVLW  41
741E:  MOVWF  FE9
7420:  MOVFF  26,3E
7424:  MOVFF  25,3D
7428:  MOVFF  24,3C
742C:  MOVFF  23,3B
7430:  CALL   0CA2
....................        delay_ms(300); 
7434:  MOVLW  02
7436:  MOVWF  3A
7438:  MOVLW  96
743A:  MOVWF  49
743C:  CALL   0A08
7440:  DECFSZ 3A,F
7442:  BRA    7438
....................        break;} 
7444:  BRA    7446
....................  
.................... if(input(pin_B6)){ // boto apaga 
7446:  BSF    F93.6
7448:  BTFSS  F81.6
744A:  BRA    7608
....................  
....................  
.................... j=0; 
744C:  CLRF   06
.................... teclado=0; 
744E:  CLRF   08
7450:  CLRF   07
.................... digito=0; 
7452:  CLRF   0A
7454:  CLRF   09
.................... w=0; 
7456:  CLRF   0B
.................... unidade=0; 
7458:  CLRF   0D
745A:  CLRF   0C
.................... dezena=0; 
745C:  CLRF   0F
745E:  CLRF   0E
.................... dezena1=0; 
7460:  CLRF   13
7462:  CLRF   12
7464:  CLRF   11
7466:  CLRF   10
.................... centena=0; 
7468:  CLRF   15
746A:  CLRF   14
.................... resultado=0; 
746C:  CLRF   17
746E:  CLRF   16
.................... resultado1=0; 
7470:  CLRF   1B
7472:  CLRF   1A
7474:  CLRF   19
7476:  CLRF   18
.................... virgula=0; 
7478:  CLRF   1C
.................... y=0; 
747A:  CLRF   22
747C:  CLRF   21
747E:  CLRF   20
7480:  CLRF   1F
.................... valor=0; 
7482:  CLRF   26
7484:  CLRF   25
7486:  CLRF   24
7488:  CLRF   23
.................... valor1=0; 
748A:  CLRF   2A
748C:  CLRF   29
748E:  CLRF   28
7490:  CLRF   27
.................... c=0; 
7492:  CLRF   34
....................  
.................... if(kohm==0 && mohm==0) { 
7494:  MOVF   1D,F
7496:  BNZ   7510
7498:  MOVF   1E,F
749A:  BNZ   7510
.................... printf(lcd_putc,"\f Valor:%1.1f Ohm",v);lcd_putc("\n Caixa:             "); 
749C:  CLRF   3A
749E:  MOVF   3A,W
74A0:  CALL   08F2
74A4:  INCF   3A,F
74A6:  MOVWF  00
74A8:  MOVWF  48
74AA:  CALL   0BE6
74AE:  MOVLW  08
74B0:  SUBWF  3A,W
74B2:  BNZ   749E
74B4:  MOVLW  89
74B6:  MOVWF  FE9
74B8:  MOVFF  38,3E
74BC:  MOVFF  37,3D
74C0:  MOVFF  36,3C
74C4:  MOVFF  35,3B
74C8:  MOVLW  01
74CA:  MOVWF  3F
74CC:  CALL   2C9C
74D0:  MOVLW  0D
74D2:  MOVWF  3B
74D4:  MOVF   3B,W
74D6:  CALL   08F2
74DA:  INCF   3B,F
74DC:  MOVWF  00
74DE:  MOVWF  48
74E0:  CALL   0BE6
74E4:  MOVLW  11
74E6:  SUBWF  3B,W
74E8:  BNZ   74D4
74EA:  CLRF   3A
74EC:  MOVF   3A,W
74EE:  CALL   07F0
74F2:  IORLW  00
74F4:  BZ    7500
74F6:  INCF   3A,F
74F8:  MOVWF  48
74FA:  CALL   0BE6
74FE:  BRA    74EC
.................... delay_ms(1000);} 
7500:  MOVLW  04
7502:  MOVWF  3A
7504:  MOVLW  FA
7506:  MOVWF  49
7508:  CALL   0A08
750C:  DECFSZ 3A,F
750E:  BRA    7504
....................  
.................... if(kohm==1 && mohm==0) { 
7510:  DECFSZ 1D,W
7512:  BRA    758C
7514:  MOVF   1E,F
7516:  BNZ   758C
.................... printf(lcd_putc,"\f Valor:%1.1f Kohm",v);lcd_putc("\n Caixa:             "); 
7518:  CLRF   3A
751A:  MOVF   3A,W
751C:  CALL   0914
7520:  INCF   3A,F
7522:  MOVWF  00
7524:  MOVWF  48
7526:  CALL   0BE6
752A:  MOVLW  08
752C:  SUBWF  3A,W
752E:  BNZ   751A
7530:  MOVLW  89
7532:  MOVWF  FE9
7534:  MOVFF  38,3E
7538:  MOVFF  37,3D
753C:  MOVFF  36,3C
7540:  MOVFF  35,3B
7544:  MOVLW  01
7546:  MOVWF  3F
7548:  CALL   2C9C
754C:  MOVLW  0D
754E:  MOVWF  3B
7550:  MOVF   3B,W
7552:  CALL   0914
7556:  INCF   3B,F
7558:  MOVWF  00
755A:  MOVWF  48
755C:  CALL   0BE6
7560:  MOVLW  12
7562:  SUBWF  3B,W
7564:  BNZ   7550
7566:  CLRF   3A
7568:  MOVF   3A,W
756A:  CALL   07F0
756E:  IORLW  00
7570:  BZ    757C
7572:  INCF   3A,F
7574:  MOVWF  48
7576:  CALL   0BE6
757A:  BRA    7568
.................... delay_ms(1000);} 
757C:  MOVLW  04
757E:  MOVWF  3A
7580:  MOVLW  FA
7582:  MOVWF  49
7584:  CALL   0A08
7588:  DECFSZ 3A,F
758A:  BRA    7580
....................  
.................... if(kohm==0 && mohm==1) { 
758C:  MOVF   1D,F
758E:  BNZ   7608
7590:  DECFSZ 1E,W
7592:  BRA    7608
.................... printf(lcd_putc,"\f Valor:%1.1f Mohm",v);lcd_putc("\n Caixa:             "); 
7594:  CLRF   3A
7596:  MOVF   3A,W
7598:  CALL   0938
759C:  INCF   3A,F
759E:  MOVWF  00
75A0:  MOVWF  48
75A2:  CALL   0BE6
75A6:  MOVLW  08
75A8:  SUBWF  3A,W
75AA:  BNZ   7596
75AC:  MOVLW  89
75AE:  MOVWF  FE9
75B0:  MOVFF  38,3E
75B4:  MOVFF  37,3D
75B8:  MOVFF  36,3C
75BC:  MOVFF  35,3B
75C0:  MOVLW  01
75C2:  MOVWF  3F
75C4:  CALL   2C9C
75C8:  MOVLW  0D
75CA:  MOVWF  3B
75CC:  MOVF   3B,W
75CE:  CALL   0938
75D2:  INCF   3B,F
75D4:  MOVWF  00
75D6:  MOVWF  48
75D8:  CALL   0BE6
75DC:  MOVLW  12
75DE:  SUBWF  3B,W
75E0:  BNZ   75CC
75E2:  CLRF   3A
75E4:  MOVF   3A,W
75E6:  CALL   07F0
75EA:  IORLW  00
75EC:  BZ    75F8
75EE:  INCF   3A,F
75F0:  MOVWF  48
75F2:  CALL   0BE6
75F6:  BRA    75E4
.................... delay_ms(1000);} 
75F8:  MOVLW  04
75FA:  MOVWF  3A
75FC:  MOVLW  FA
75FE:  MOVWF  49
7600:  CALL   0A08
7604:  DECFSZ 3A,F
7606:  BRA    75FC
....................  
.................... }          
....................         
....................  
....................         
.................... caixa=valor; 
7608:  MOVFF  23,33
....................  
....................  
....................  
.................... if(input(pin_b7)){leitura++;} 
760C:  BSF    F93.7
760E:  BTFSS  F81.7
7610:  BRA    7618
7612:  INCF   2B,F
7614:  BTFSC  FD8.2
7616:  INCF   2C,F
....................  } 
7618:  BRA    71D0
....................   
.................... j=0; 
761A:  CLRF   06
.................... teclado=0; 
761C:  CLRF   08
761E:  CLRF   07
.................... digito=0; 
7620:  CLRF   0A
7622:  CLRF   09
.................... w=0; 
7624:  CLRF   0B
.................... unidade=0; 
7626:  CLRF   0D
7628:  CLRF   0C
.................... dezena=0; 
762A:  CLRF   0F
762C:  CLRF   0E
.................... dezena1=0; 
762E:  CLRF   13
7630:  CLRF   12
7632:  CLRF   11
7634:  CLRF   10
.................... centena=0; 
7636:  CLRF   15
7638:  CLRF   14
.................... resultado=0; 
763A:  CLRF   17
763C:  CLRF   16
.................... resultado1=0; 
763E:  CLRF   1B
7640:  CLRF   1A
7642:  CLRF   19
7644:  CLRF   18
.................... virgula=0; 
7646:  CLRF   1C
.................... y=0; 
7648:  CLRF   22
764A:  CLRF   21
764C:  CLRF   20
764E:  CLRF   1F
.................... valor=0; 
7650:  CLRF   26
7652:  CLRF   25
7654:  CLRF   24
7656:  CLRF   23
.................... valor1=0; 
7658:  CLRF   2A
765A:  CLRF   29
765C:  CLRF   28
765E:  CLRF   27
.................... c=0; 
7660:  CLRF   34
.................... leitura=4; 
7662:  CLRF   2C
7664:  MOVLW  04
7666:  MOVWF  2B
....................  
.................... lcd_putc("\fPara Gravar a Caixa "); lcd_putc("\nPressione Enter     "); delay_ms(2000); 
7668:  CLRF   3A
766A:  MOVF   3A,W
766C:  CALL   0978
7670:  IORLW  00
7672:  BZ    767E
7674:  INCF   3A,F
7676:  MOVWF  48
7678:  CALL   0BE6
767C:  BRA    766A
767E:  CLRF   3A
7680:  MOVF   3A,W
7682:  CALL   099E
7686:  IORLW  00
7688:  BZ    7694
768A:  INCF   3A,F
768C:  MOVWF  48
768E:  CALL   0BE6
7692:  BRA    7680
7694:  MOVLW  08
7696:  MOVWF  3A
7698:  MOVLW  FA
769A:  MOVWF  49
769C:  CALL   0A08
76A0:  DECFSZ 3A,F
76A2:  BRA    7698
.................... //ARMAZENEI EM C O VALOR DA CAIXA 
....................  
.................... /////////////////////// 
.................... ////////////////////// 
.................... ///////////////////// 
....................  
....................  
....................  
.................... } //whiile do boto programa 
....................  
.................... if(input(pin_b7)){ //gravar um valor  
76A4:  BSF    F93.7
76A6:  BTFSS  F81.7
76A8:  BRA    7792
....................  
.................... v+=0.1; //Soma 0,1 com o valor FLOAT para corrigir erro do pic 
76AA:  BCF    FD8.1
76AC:  MOVFF  38,3D
76B0:  MOVFF  37,3C
76B4:  MOVFF  36,3B
76B8:  MOVFF  35,3A
76BC:  MOVLW  CD
76BE:  MOVWF  41
76C0:  MOVLW  CC
76C2:  MOVWF  40
76C4:  MOVLW  4C
76C6:  MOVWF  3F
76C8:  MOVLW  7B
76CA:  MOVWF  3E
76CC:  CALL   2E26
76D0:  MOVFF  03,38
76D4:  MOVFF  02,37
76D8:  MOVFF  01,36
76DC:  MOVFF  00,35
.................... d=1;   //Flag de ativao da rotina 
76E0:  MOVLW  01
76E2:  MOVWF  32
.................... c=eepromLER(v,kohm,mohm,d); //Chamada da subrotina 
76E4:  MOVFF  38,3D
76E8:  MOVFF  37,3C
76EC:  MOVFF  36,3B
76F0:  MOVFF  35,3A
76F4:  MOVFF  1D,3E
76F8:  MOVFF  1E,3F
76FC:  MOVFF  32,40
7700:  CALL   313C
7704:  MOVFF  03,3D
7708:  MOVFF  02,3C
770C:  MOVFF  01,3B
7710:  MOVFF  00,3A
7714:  CALL   4DEA
7718:  MOVFF  01,34
.................... lcd_putc("\fValor Armazenado    ");   
771C:  CLRF   3A
771E:  MOVF   3A,W
7720:  CALL   09C4
7724:  IORLW  00
7726:  BZ    7732
7728:  INCF   3A,F
772A:  MOVWF  48
772C:  CALL   0BE6
7730:  BRA    771E
.................... printf(lcd_putc,"\nNa caixa= %u",caixa);  //Indica em que caixa o valor foi armazenado 
7732:  CLRF   3A
7734:  MOVF   3A,W
7736:  CALL   09EA
773A:  INCF   3A,F
773C:  MOVWF  00
773E:  MOVWF  48
7740:  CALL   0BE6
7744:  MOVLW  0B
7746:  SUBWF  3A,W
7748:  BNZ   7734
774A:  MOVFF  33,3B
774E:  MOVLW  1B
7750:  MOVWF  3C
7752:  CALL   4E4A
.................... delay_ms(2000); 
7756:  MOVLW  08
7758:  MOVWF  3A
775A:  MOVLW  FA
775C:  MOVWF  49
775E:  CALL   0A08
7762:  DECFSZ 3A,F
7764:  BRA    775A
.................... write_eeprom(caixa,c); //Escreve na memria EEPROM 
7766:  MOVFF  33,FA9
776A:  MOVFF  34,FA8
776E:  BCF    FA6.6
7770:  BCF    FA6.7
7772:  BSF    FA6.2
7774:  MOVFF  FF2,00
7778:  BCF    FF2.7
777A:  MOVLB  F
777C:  MOVLW  55
777E:  MOVWF  FA7
7780:  MOVLW  AA
7782:  MOVWF  FA7
7784:  BSF    FA6.1
7786:  BTFSC  FA6.1
7788:  BRA    7786
778A:  BCF    FA6.2
778C:  MOVF   00,W
778E:  IORWF  FF2,F
7790:  MOVLB  0
....................  
.................... } 
....................  
....................  
....................  
.................... }} // void e while 
7792:  GOTO   54F0
7796:  SLEEP 

Configuration Fuses:
   Word  1: 2200   HS NOOSCSEN
   Word  2: 0E06   BROWNOUT WDT128 NOWDT BORV42 PUT
   Word  3: 0100   CCP2C1
   Word  4: 0081   STVREN NODEBUG NOLVP
   Word  5: C00F   NOPROTECT NOCPD NOCPB
   Word  6: E00F   NOWRT NOWRTD NOWRTB NOWRTC
   Word  7: 400F   NOEBTR NOEBTRB
